---
triple:          'arm64-apple-darwin'
binary-path:     '/Users/matthewmartin/Documents/C++/tele/src/main'
relocations:
  - { offsetInCU: 0x7A87, offset: 0x7A87, size: 0x8, addend: 0x0, symName: __ZNSt3__17getlineB8ne180100IcNS_11char_traitsIcEENS_9allocatorIcEEEERNS_13basic_istreamIT_T0_EES9_RNS_12basic_stringIS6_S7_T1_EE, symObjAddr: 0x548, symBinAddr: 0x10000268C, symSize: 0x5C }
  - { offsetInCU: 0x7F08, offset: 0x7F08, size: 0x8, addend: 0x0, symName: __ZNSt3__17getlineB8ne180100IcNS_11char_traitsIcEENS_9allocatorIcEEEERNS_13basic_istreamIT_T0_EES9_RNS_12basic_stringIS6_S7_T1_EES6_, symObjAddr: 0x6E0, symBinAddr: 0x100002824, symSize: 0x238 }
  - { offsetInCU: 0x7FDC, offset: 0x7FDC, size: 0x8, addend: 0x0, symName: __ZNSt3__112__to_addressB8ne180100IKcEEPT_S3_, symObjAddr: 0xE94, symBinAddr: 0x100002FD8, symSize: 0x14 }
  - { offsetInCU: 0x8044, offset: 0x8044, size: 0x8, addend: 0x0, symName: __ZNSt3__19use_facetB8ne180100INS_5ctypeIcEEEERKT_RKNS_6localeE, symObjAddr: 0x1218, symBinAddr: 0x10000335C, symSize: 0x2C }
  - { offsetInCU: 0x8746, offset: 0x8746, size: 0x8, addend: 0x0, symName: __ZNSt3__112__to_addressB8ne180100I13TelemetryDataEEPT_S3_, symObjAddr: 0x1E9C, symBinAddr: 0x100003FE0, symSize: 0x14 }
  - { offsetInCU: 0x877B, offset: 0x877B, size: 0x8, addend: 0x0, symName: __ZNSt3__13maxB8ne180100ImEERKT_S3_S3_, symObjAddr: 0x22EC, symBinAddr: 0x100004430, symSize: 0x2C }
  - { offsetInCU: 0x87BE, offset: 0x87BE, size: 0x8, addend: 0x0, symName: __ZNSt3__13minB8ne180100ImEERKT_S3_S3_, symObjAddr: 0x2318, symBinAddr: 0x10000445C, symSize: 0x2C }
  - { offsetInCU: 0x8A02, offset: 0x8A02, size: 0x8, addend: 0x0, symName: __ZNSt3__13minB8ne180100ImNS_6__lessIvvEEEERKT_S5_S5_T0_, symObjAddr: 0x23A4, symBinAddr: 0x1000044E8, symSize: 0x54 }
  - { offsetInCU: 0x8AA1, offset: 0x8AA1, size: 0x8, addend: 0x0, symName: __ZNSt3__120__throw_length_errorB8ne180100EPKc, symObjAddr: 0x2484, symBinAddr: 0x1000045C8, symSize: 0x64 }
  - { offsetInCU: 0x8AC9, offset: 0x8AC9, size: 0x8, addend: 0x0, symName: __ZNSt3__13maxB8ne180100ImNS_6__lessIvvEEEERKT_S5_S5_T0_, symObjAddr: 0x25C8, symBinAddr: 0x10000470C, symSize: 0x54 }
  - { offsetInCU: 0x8B23, offset: 0x8B23, size: 0x8, addend: 0x0, symName: __ZNSt3__119__allocate_at_leastB8ne180100INS_9allocatorI13TelemetryDataEEEENS_19__allocation_resultINS_16allocator_traitsIT_E7pointerEEERS6_m, symObjAddr: 0x2738, symBinAddr: 0x10000487C, symSize: 0x40 }
  - { offsetInCU: 0x8B66, offset: 0x8B66, size: 0x8, addend: 0x0, symName: __ZNSt3__117__libcpp_allocateB8ne180100Emm, symObjAddr: 0x28DC, symBinAddr: 0x100004A20, symSize: 0x28 }
  - { offsetInCU: 0x8BA3, offset: 0x8BA3, size: 0x8, addend: 0x0, symName: __ZNSt3__121__libcpp_operator_newB8ne180100IJmEEEPvDpT_, symObjAddr: 0x2904, symBinAddr: 0x100004A48, symSize: 0x24 }
  - { offsetInCU: 0x8BDC, offset: 0x8BDC, size: 0x8, addend: 0x0, symName: __ZNSt3__142__uninitialized_allocator_move_if_noexceptB8ne180100INS_9allocatorI13TelemetryDataEENS_16reverse_iteratorIPS2_EES6_S6_EET2_RT_T0_T1_S7_, symObjAddr: 0x299C, symBinAddr: 0x100004AE0, symSize: 0x12C }
  - { offsetInCU: 0x8C7C, offset: 0x8C7C, size: 0x8, addend: 0x0, symName: __ZNSt3__14swapB8ne180100IP13TelemetryDataEENS_9enable_ifIXaasr21is_move_constructibleIT_EE5valuesr18is_move_assignableIS4_EE5valueEvE4typeERS4_S7_, symObjAddr: 0x2B14, symBinAddr: 0x100004C58, symSize: 0x3C }
  - { offsetInCU: 0x8CCD, offset: 0x8CCD, size: 0x8, addend: 0x0, symName: __ZNSt3__122__make_exception_guardB8ne180100INS_29_AllocatorDestroyRangeReverseINS_9allocatorI13TelemetryDataEENS_16reverse_iteratorIPS3_EEEEEENS_28__exception_guard_exceptionsIT_EESA_, symObjAddr: 0x2B64, symBinAddr: 0x100004CA8, symSize: 0x4C }
  - { offsetInCU: 0x8D03, offset: 0x8D03, size: 0x8, addend: 0x0, symName: __ZNSt3__1neB8ne180100IP13TelemetryDataS2_EEbRKNS_16reverse_iteratorIT_EERKNS3_IT0_EE, symObjAddr: 0x2BF4, symBinAddr: 0x100004D38, symSize: 0x48 }
  - { offsetInCU: 0x8D4F, offset: 0x8D4F, size: 0x8, addend: 0x0, symName: __ZNSt3__112__to_addressB8ne180100INS_16reverse_iteratorIP13TelemetryDataEEvEEu7__decayIDTclsr19__to_address_helperIT_EE6__callclsr3stdE7declvalIRKS5_EEEEES7_, symObjAddr: 0x2C70, symBinAddr: 0x100004DB4, symSize: 0x24 }
  - { offsetInCU: 0x8DAE, offset: 0x8DAE, size: 0x8, addend: 0x0, symName: __ZNSt3__119__allocator_destroyB8ne180100INS_9allocatorI13TelemetryDataEENS_16reverse_iteratorINS4_IPS2_EEEES7_EEvRT_T0_T1_, symObjAddr: 0x3110, symBinAddr: 0x100005254, symSize: 0x70 }
  - { offsetInCU: 0x8E13, offset: 0x8E13, size: 0x8, addend: 0x0, symName: __ZNSt3__1neB8ne180100INS_16reverse_iteratorIP13TelemetryDataEES4_EEbRKNS1_IT_EERKNS1_IT0_EE, symObjAddr: 0x31BC, symBinAddr: 0x100005300, symSize: 0x60 }
  - { offsetInCU: 0x8E5F, offset: 0x8E5F, size: 0x8, addend: 0x0, symName: __ZNSt3__112__to_addressB8ne180100INS_16reverse_iteratorINS1_IP13TelemetryDataEEEEvEEu7__decayIDTclsr19__to_address_helperIT_EE6__callclsr3stdE7declvalIRKS6_EEEEES8_, symObjAddr: 0x3248, symBinAddr: 0x10000538C, symSize: 0x24 }
  - { offsetInCU: 0x8EBE, offset: 0x8EBE, size: 0x8, addend: 0x0, symName: __ZNSt3__119__libcpp_deallocateB8ne180100EPvmm, symObjAddr: 0x3660, symBinAddr: 0x1000057A4, symSize: 0x30 }
  - { offsetInCU: 0x8F06, offset: 0x8F06, size: 0x8, addend: 0x0, symName: __ZNSt3__127__do_deallocate_handle_sizeB8ne180100IJEEEvPvmDpT_, symObjAddr: 0x3690, symBinAddr: 0x1000057D4, symSize: 0x28 }
  - { offsetInCU: 0x8F44, offset: 0x8F44, size: 0x8, addend: 0x0, symName: __ZNSt3__124__libcpp_operator_deleteB8ne180100IJPvEEEvDpT_, symObjAddr: 0x36B8, symBinAddr: 0x1000057FC, symSize: 0x24 }
  - { offsetInCU: 0x8F79, offset: 0x8F79, size: 0x8, addend: 0x0, symName: __ZNSt3__122__make_exception_guardB8ne180100INS_6vectorI13TelemetryDataNS_9allocatorIS2_EEE16__destroy_vectorEEENS_28__exception_guard_exceptionsIT_EES8_, symObjAddr: 0x391C, symBinAddr: 0x100005A60, symSize: 0x40 }
  - { offsetInCU: 0x8FAE, offset: 0x8FAE, size: 0x8, addend: 0x0, symName: __ZNSt3__130__uninitialized_allocator_copyB8ne180100INS_9allocatorI13TelemetryDataEEPS2_S4_S4_EET2_RT_T0_T1_S5_, symObjAddr: 0x3B90, symBinAddr: 0x100005CD4, symSize: 0x80 }
  - { offsetInCU: 0x904B, offset: 0x904B, size: 0x8, addend: 0x0, symName: __ZNSt3__114__unwrap_rangeB8ne180100IP13TelemetryDataS2_EENS_4pairIT0_S4_EET_S6_, symObjAddr: 0x3C10, symBinAddr: 0x100005D54, symSize: 0x60 }
  - { offsetInCU: 0x9097, offset: 0x9097, size: 0x8, addend: 0x0, symName: __ZNSt3__135__uninitialized_allocator_copy_implB8ne180100INS_9allocatorI13TelemetryDataEEPS2_S4_S4_EET2_RT_T0_T1_S5_, symObjAddr: 0x3C70, symBinAddr: 0x100005DB4, symSize: 0xF4 }
  - { offsetInCU: 0x9135, offset: 0x9135, size: 0x8, addend: 0x0, symName: __ZNSt3__113__unwrap_iterB8ne180100IP13TelemetryDataNS_18__unwrap_iter_implIS2_Lb1EEELi0EEEDTclsrT0_8__unwrapclsr3stdE7declvalIT_EEEES6_, symObjAddr: 0x3D64, symBinAddr: 0x100005EA8, symSize: 0x24 }
  - { offsetInCU: 0x9179, offset: 0x9179, size: 0x8, addend: 0x0, symName: __ZNSt3__113__rewrap_iterB8ne180100IP13TelemetryDataS2_NS_18__unwrap_iter_implIS2_Lb1EEEEET_S5_T0_, symObjAddr: 0x3D88, symBinAddr: 0x100005ECC, symSize: 0x3C }
  - { offsetInCU: 0x91CE, offset: 0x91CE, size: 0x8, addend: 0x0, symName: __ZNSt3__19make_pairB8ne180100IP13TelemetryDataS2_EENS_4pairINS_18__unwrap_ref_decayIT_E4typeENS4_IT0_E4typeEEEOS5_OS8_, symObjAddr: 0x3DC4, symBinAddr: 0x100005F08, symSize: 0x38 }
  - { offsetInCU: 0x92F1, offset: 0x92F1, size: 0x8, addend: 0x0, symName: __ZNSt3__122__make_exception_guardB8ne180100INS_29_AllocatorDestroyRangeReverseINS_9allocatorI13TelemetryDataEEPS3_EEEENS_28__exception_guard_exceptionsIT_EES8_, symObjAddr: 0x3E6C, symBinAddr: 0x100005FB0, symSize: 0x4C }
  - { offsetInCU: 0x9327, offset: 0x9327, size: 0x8, addend: 0x0, symName: __ZNSt3__119__allocator_destroyB8ne180100INS_9allocatorI13TelemetryDataEENS_16reverse_iteratorIPS2_EES6_EEvRT_T0_T1_, symObjAddr: 0x4180, symBinAddr: 0x1000062C4, symSize: 0x70 }
  - { offsetInCU: 0x971A, offset: 0x971A, size: 0x8, addend: 0x0, symName: __ZSt28__throw_bad_array_new_lengthB8ne180100v, symObjAddr: 0x28A8, symBinAddr: 0x1000049EC, symSize: 0x34 }
  - { offsetInCU: 0x9CA7, offset: 0x9CA7, size: 0x8, addend: 0x0, symName: __ZNSt3__16vectorI13TelemetryDataNS_9allocatorIS1_EEE26__swap_out_circular_bufferERNS_14__split_bufferIS1_RS3_EE, symObjAddr: 0x20F4, symBinAddr: 0x100004238, symSize: 0x110 }
  - { offsetInCU: 0xC0A5, offset: 0xC0A5, size: 0x8, addend: 0x0, symName: __ZN10DataParser8loadDataERKNSt3__112basic_stringIcNS0_11char_traitsIcEENS0_9allocatorIcEEEE, symObjAddr: 0x0, symBinAddr: 0x100002144, symSize: 0x384 }
  - { offsetInCU: 0xC314, offset: 0xC314, size: 0x8, addend: 0x0, symName: __ZNSt3__114basic_ifstreamIcNS_11char_traitsIcEEEC1ERKNS_12basic_stringIcS2_NS_9allocatorIcEEEEj, symObjAddr: 0x384, symBinAddr: 0x1000024C8, symSize: 0x16C }
  - { offsetInCU: 0xC35C, offset: 0xC35C, size: 0x8, addend: 0x0, symName: __ZNKSt3__114basic_ifstreamIcNS_11char_traitsIcEEE7is_openEv, symObjAddr: 0x4F0, symBinAddr: 0x100002634, symSize: 0x2C }
  - { offsetInCU: 0xC383, offset: 0xC383, size: 0x8, addend: 0x0, symName: __ZNSt3__112basic_stringIcNS_11char_traitsIcEENS_9allocatorIcEEEC1B8ne180100Ev, symObjAddr: 0x51C, symBinAddr: 0x100002660, symSize: 0x2C }
  - { offsetInCU: 0xC3AC, offset: 0xC3AC, size: 0x8, addend: 0x0, symName: __ZNKSt3__19basic_iosIcNS_11char_traitsIcEEEcvbB8ne180100Ev, symObjAddr: 0x5A4, symBinAddr: 0x1000026E8, symSize: 0x2C }
  - { offsetInCU: 0xC430, offset: 0xC430, size: 0x8, addend: 0x0, symName: __ZNSt3__118basic_stringstreamIcNS_11char_traitsIcEENS_9allocatorIcEEEC1B8ne180100ERKNS_12basic_stringIcS2_S4_EEj, symObjAddr: 0x5D0, symBinAddr: 0x100002714, symSize: 0x110 }
  - { offsetInCU: 0xC47B, offset: 0xC47B, size: 0x8, addend: 0x0, symName: __ZNSt3__16vectorI13TelemetryDataNS_9allocatorIS1_EEE12emplace_backIJRfS6_S6_RNS_12basic_stringIcNS_11char_traitsIcEENS2_IcEEEEEEEvDpOT_, symObjAddr: 0x918, symBinAddr: 0x100002A5C, symSize: 0xB4 }
  - { offsetInCU: 0xC50C, offset: 0xC50C, size: 0x8, addend: 0x0, symName: __ZNSt3__118basic_stringstreamIcNS_11char_traitsIcEENS_9allocatorIcEEED1Ev, symObjAddr: 0x9CC, symBinAddr: 0x100002B10, symSize: 0x40 }
  - { offsetInCU: 0xC537, offset: 0xC537, size: 0x8, addend: 0x0, symName: __ZNSt3__114basic_ifstreamIcNS_11char_traitsIcEEE5closeEv, symObjAddr: 0xA0C, symBinAddr: 0x100002B50, symSize: 0x58 }
  - { offsetInCU: 0xC563, offset: 0xC563, size: 0x8, addend: 0x0, symName: __ZNSt3__114basic_ifstreamIcNS_11char_traitsIcEEED1Ev, symObjAddr: 0xA64, symBinAddr: 0x100002BA8, symSize: 0x40 }
  - { offsetInCU: 0xC58F, offset: 0xC58F, size: 0x8, addend: 0x0, symName: __ZNK10DataParser7getDataEv, symObjAddr: 0xAA4, symBinAddr: 0x100002BE8, symSize: 0x38 }
  - { offsetInCU: 0xC5B6, offset: 0xC5B6, size: 0x8, addend: 0x0, symName: __ZNSt3__16vectorI13TelemetryDataNS_9allocatorIS1_EEEC1ERKS4_, symObjAddr: 0xADC, symBinAddr: 0x100002C20, symSize: 0x34 }
  - { offsetInCU: 0xC5F0, offset: 0xC5F0, size: 0x8, addend: 0x0, symName: __ZNSt3__118basic_stringstreamIcNS_11char_traitsIcEENS_9allocatorIcEEED2Ev, symObjAddr: 0xB10, symBinAddr: 0x100002C54, symSize: 0x6C }
  - { offsetInCU: 0xC628, offset: 0xC628, size: 0x8, addend: 0x0, symName: __ZThn16_NSt3__118basic_stringstreamIcNS_11char_traitsIcEENS_9allocatorIcEEED1Ev, symObjAddr: 0xB7C, symBinAddr: 0x100002CC0, symSize: 0x1C }
  - { offsetInCU: 0xC63F, offset: 0xC63F, size: 0x8, addend: 0x0, symName: __ZTv0_n24_NSt3__118basic_stringstreamIcNS_11char_traitsIcEENS_9allocatorIcEEED1Ev, symObjAddr: 0xB98, symBinAddr: 0x100002CDC, symSize: 0x28 }
  - { offsetInCU: 0xC65B, offset: 0xC65B, size: 0x8, addend: 0x0, symName: __ZNSt3__115basic_stringbufIcNS_11char_traitsIcEENS_9allocatorIcEEED1Ev, symObjAddr: 0xBC0, symBinAddr: 0x100002D04, symSize: 0x2C }
  - { offsetInCU: 0xC687, offset: 0xC687, size: 0x8, addend: 0x0, symName: __ZNSt3__115basic_stringbufIcNS_11char_traitsIcEENS_9allocatorIcEEED2Ev, symObjAddr: 0xBEC, symBinAddr: 0x100002D30, symSize: 0x48 }
  - { offsetInCU: 0xC6B3, offset: 0xC6B3, size: 0x8, addend: 0x0, symName: __ZNSt3__114basic_ifstreamIcNS_11char_traitsIcEEED2Ev, symObjAddr: 0xC34, symBinAddr: 0x100002D78, symSize: 0x64 }
  - { offsetInCU: 0xC6EB, offset: 0xC6EB, size: 0x8, addend: 0x0, symName: __ZTv0_n24_NSt3__114basic_ifstreamIcNS_11char_traitsIcEEED1Ev, symObjAddr: 0xC98, symBinAddr: 0x100002DDC, symSize: 0x28 }
  - { offsetInCU: 0xC702, offset: 0xC702, size: 0x8, addend: 0x0, symName: __ZNSt3__19basic_iosIcNS_11char_traitsIcEEEC2B8ne180100Ev, symObjAddr: 0xCC0, symBinAddr: 0x100002E04, symSize: 0x44 }
  - { offsetInCU: 0xC72B, offset: 0xC72B, size: 0x8, addend: 0x0, symName: __ZNSt3__113basic_istreamIcNS_11char_traitsIcEEEC2B8ne180100EPNS_15basic_streambufIcS2_EE, symObjAddr: 0xD04, symBinAddr: 0x100002E48, symSize: 0x64 }
  - { offsetInCU: 0xC76D, offset: 0xC76D, size: 0x8, addend: 0x0, symName: __ZNSt3__113basic_filebufIcNS_11char_traitsIcEEE4openERKNS_12basic_stringIcS2_NS_9allocatorIcEEEEj, symObjAddr: 0xD68, symBinAddr: 0x100002EAC, symSize: 0x44 }
  - { offsetInCU: 0xC7B2, offset: 0xC7B2, size: 0x8, addend: 0x0, symName: __ZNSt3__19basic_iosIcNS_11char_traitsIcEEE8setstateB8ne180100Ej, symObjAddr: 0xDAC, symBinAddr: 0x100002EF0, symSize: 0x2C }
  - { offsetInCU: 0xC7E6, offset: 0xC7E6, size: 0x8, addend: 0x0, symName: __ZNSt3__18ios_baseC2B8ne180100Ev, symObjAddr: 0xDD8, symBinAddr: 0x100002F1C, symSize: 0x24 }
  - { offsetInCU: 0xC80E, offset: 0xC80E, size: 0x8, addend: 0x0, symName: __ZNSt3__19basic_iosIcNS_11char_traitsIcEEE4initB8ne180100EPNS_15basic_streambufIcS2_EE, symObjAddr: 0xDFC, symBinAddr: 0x100002F40, symSize: 0x44 }
  - { offsetInCU: 0xC844, offset: 0xC844, size: 0x8, addend: 0x0, symName: __ZNSt3__111char_traitsIcE3eofB8ne180100Ev, symObjAddr: 0xE40, symBinAddr: 0x100002F84, symSize: 0x8 }
  - { offsetInCU: 0xC858, offset: 0xC858, size: 0x8, addend: 0x0, symName: __ZNKSt3__112basic_stringIcNS_11char_traitsIcEENS_9allocatorIcEEE5c_strB8ne180100Ev, symObjAddr: 0xE48, symBinAddr: 0x100002F8C, symSize: 0x24 }
  - { offsetInCU: 0xC87D, offset: 0xC87D, size: 0x8, addend: 0x0, symName: __ZNKSt3__112basic_stringIcNS_11char_traitsIcEENS_9allocatorIcEEE4dataB8ne180100Ev, symObjAddr: 0xE6C, symBinAddr: 0x100002FB0, symSize: 0x28 }
  - { offsetInCU: 0xC8A2, offset: 0xC8A2, size: 0x8, addend: 0x0, symName: __ZNKSt3__112basic_stringIcNS_11char_traitsIcEENS_9allocatorIcEEE13__get_pointerB8ne180100Ev, symObjAddr: 0xEA8, symBinAddr: 0x100002FEC, symSize: 0x54 }
  - { offsetInCU: 0xC8C7, offset: 0xC8C7, size: 0x8, addend: 0x0, symName: __ZNKSt3__112basic_stringIcNS_11char_traitsIcEENS_9allocatorIcEEE9__is_longB8ne180100Ev, symObjAddr: 0xEFC, symBinAddr: 0x100003040, symSize: 0x38 }
  - { offsetInCU: 0xC8EC, offset: 0xC8EC, size: 0x8, addend: 0x0, symName: __ZNKSt3__112basic_stringIcNS_11char_traitsIcEENS_9allocatorIcEEE18__get_long_pointerB8ne180100Ev, symObjAddr: 0xF34, symBinAddr: 0x100003078, symSize: 0x28 }
  - { offsetInCU: 0xC911, offset: 0xC911, size: 0x8, addend: 0x0, symName: __ZNKSt3__112basic_stringIcNS_11char_traitsIcEENS_9allocatorIcEEE19__get_short_pointerB8ne180100Ev, symObjAddr: 0xF5C, symBinAddr: 0x1000030A0, symSize: 0x28 }
  - { offsetInCU: 0xC936, offset: 0xC936, size: 0x8, addend: 0x0, symName: __ZNKSt3__117__compressed_pairINS_12basic_stringIcNS_11char_traitsIcEENS_9allocatorIcEEE5__repES5_E5firstB8ne180100Ev, symObjAddr: 0xF84, symBinAddr: 0x1000030C8, symSize: 0x24 }
  - { offsetInCU: 0xC95B, offset: 0xC95B, size: 0x8, addend: 0x0, symName: __ZNKSt3__122__compressed_pair_elemINS_12basic_stringIcNS_11char_traitsIcEENS_9allocatorIcEEE5__repELi0ELb0EE5__getB8ne180100Ev, symObjAddr: 0xFA8, symBinAddr: 0x1000030EC, symSize: 0x14 }
  - { offsetInCU: 0xC980, offset: 0xC980, size: 0x8, addend: 0x0, symName: __ZNSt3__114pointer_traitsIPKcE10pointer_toB8ne180100ERS1_, symObjAddr: 0xFBC, symBinAddr: 0x100003100, symSize: 0x14 }
  - { offsetInCU: 0xC9A2, offset: 0xC9A2, size: 0x8, addend: 0x0, symName: __ZNSt3__18ios_base8setstateB8ne180100Ej, symObjAddr: 0xFD0, symBinAddr: 0x100003114, symSize: 0x34 }
  - { offsetInCU: 0xC9D8, offset: 0xC9D8, size: 0x8, addend: 0x0, symName: __ZNKSt3__113basic_filebufIcNS_11char_traitsIcEEE7is_openEv, symObjAddr: 0x1004, symBinAddr: 0x100003148, symSize: 0x24 }
  - { offsetInCU: 0xC9FF, offset: 0xC9FF, size: 0x8, addend: 0x0, symName: __ZNSt3__112basic_stringIcNS_11char_traitsIcEENS_9allocatorIcEEEC2B8ne180100Ev, symObjAddr: 0x1028, symBinAddr: 0x10000316C, symSize: 0x48 }
  - { offsetInCU: 0xCA32, offset: 0xCA32, size: 0x8, addend: 0x0, symName: __ZNSt3__117__compressed_pairINS_12basic_stringIcNS_11char_traitsIcEENS_9allocatorIcEEE5__repES5_EC1B8ne180100INS_16__value_init_tagENS_18__default_init_tagEEEOT_OT0_, symObjAddr: 0x1070, symBinAddr: 0x1000031B4, symSize: 0x3C }
  - { offsetInCU: 0xCA89, offset: 0xCA89, size: 0x8, addend: 0x0, symName: __ZNKSt3__112basic_stringIcNS_11char_traitsIcEENS_9allocatorIcEEE14__annotate_newB8ne180100Em, symObjAddr: 0x10B8, symBinAddr: 0x1000031FC, symSize: 0x14 }
  - { offsetInCU: 0xCABD, offset: 0xCABD, size: 0x8, addend: 0x0, symName: __ZNSt3__117__compressed_pairINS_12basic_stringIcNS_11char_traitsIcEENS_9allocatorIcEEE5__repES5_EC2B8ne180100INS_16__value_init_tagENS_18__default_init_tagEEEOT_OT0_, symObjAddr: 0x10CC, symBinAddr: 0x100003210, symSize: 0x3C }
  - { offsetInCU: 0xCB14, offset: 0xCB14, size: 0x8, addend: 0x0, symName: __ZNSt3__122__compressed_pair_elemINS_12basic_stringIcNS_11char_traitsIcEENS_9allocatorIcEEE5__repELi0ELb0EEC2B8ne180100ENS_16__value_init_tagE, symObjAddr: 0x1108, symBinAddr: 0x10000324C, symSize: 0x20 }
  - { offsetInCU: 0xCB48, offset: 0xCB48, size: 0x8, addend: 0x0, symName: __ZNSt3__122__compressed_pair_elemINS_9allocatorIcEELi1ELb1EEC2B8ne180100ENS_18__default_init_tagE, symObjAddr: 0x1128, symBinAddr: 0x10000326C, symSize: 0x2C }
  - { offsetInCU: 0xCB7C, offset: 0xCB7C, size: 0x8, addend: 0x0, symName: __ZNSt3__19allocatorIcEC2B8ne180100Ev, symObjAddr: 0x1154, symBinAddr: 0x100003298, symSize: 0x2C }
  - { offsetInCU: 0xCBA5, offset: 0xCBA5, size: 0x8, addend: 0x0, symName: __ZNSt3__116__non_trivial_ifILb1ENS_9allocatorIcEEEC2B8ne180100Ev, symObjAddr: 0x1180, symBinAddr: 0x1000032C4, symSize: 0x14 }
  - { offsetInCU: 0xCBCD, offset: 0xCBCD, size: 0x8, addend: 0x0, symName: __ZNKSt3__19basic_iosIcNS_11char_traitsIcEEE5widenB8ne180100Ec, symObjAddr: 0x1194, symBinAddr: 0x1000032D8, symSize: 0x84 }
  - { offsetInCU: 0xCC3A, offset: 0xCC3A, size: 0x8, addend: 0x0, symName: __ZNKSt3__15ctypeIcE5widenB8ne180100Ec, symObjAddr: 0x1244, symBinAddr: 0x100003388, symSize: 0x38 }
  - { offsetInCU: 0xCC6E, offset: 0xCC6E, size: 0x8, addend: 0x0, symName: __ZNKSt3__19basic_iosIcNS_11char_traitsIcEEE4failB8ne180100Ev, symObjAddr: 0x127C, symBinAddr: 0x1000033C0, symSize: 0x28 }
  - { offsetInCU: 0xCC93, offset: 0xCC93, size: 0x8, addend: 0x0, symName: __ZNKSt3__18ios_base4failB8ne180100Ev, symObjAddr: 0x12A4, symBinAddr: 0x1000033E8, symSize: 0x28 }
  - { offsetInCU: 0xCCBA, offset: 0xCCBA, size: 0x8, addend: 0x0, symName: __ZNSt3__114basic_iostreamIcNS_11char_traitsIcEEEC2B8ne180100EPNS_15basic_streambufIcS2_EE, symObjAddr: 0x12CC, symBinAddr: 0x100003410, symSize: 0xAC }
  - { offsetInCU: 0xCCFE, offset: 0xCCFE, size: 0x8, addend: 0x0, symName: __ZNSt3__115basic_stringbufIcNS_11char_traitsIcEENS_9allocatorIcEEEC1B8ne180100ERKNS_12basic_stringIcS2_S4_EEj, symObjAddr: 0x1378, symBinAddr: 0x1000034BC, symSize: 0x3C }
  - { offsetInCU: 0xCD45, offset: 0xCD45, size: 0x8, addend: 0x0, symName: __ZNSt3__113basic_ostreamIcNS_11char_traitsIcEEEC2B8ne180100Ev, symObjAddr: 0x13B4, symBinAddr: 0x1000034F8, symSize: 0x34 }
  - { offsetInCU: 0xCD7A, offset: 0xCD7A, size: 0x8, addend: 0x0, symName: __ZNSt3__115basic_stringbufIcNS_11char_traitsIcEENS_9allocatorIcEEEC2B8ne180100ERKNS_12basic_stringIcS2_S4_EEj, symObjAddr: 0x13E8, symBinAddr: 0x10000352C, symSize: 0xB4 }
  - { offsetInCU: 0xCDC1, offset: 0xCDC1, size: 0x8, addend: 0x0, symName: __ZNKSt3__112basic_stringIcNS_11char_traitsIcEENS_9allocatorIcEEE13get_allocatorB8ne180100Ev, symObjAddr: 0x149C, symBinAddr: 0x1000035E0, symSize: 0x24 }
  - { offsetInCU: 0xCDE6, offset: 0xCDE6, size: 0x8, addend: 0x0, symName: __ZNSt3__112basic_stringIcNS_11char_traitsIcEENS_9allocatorIcEEEC1B8ne180100ERKS4_, symObjAddr: 0x14C0, symBinAddr: 0x100003604, symSize: 0x34 }
  - { offsetInCU: 0xCE1E, offset: 0xCE1E, size: 0x8, addend: 0x0, symName: __ZNKSt3__112basic_stringIcNS_11char_traitsIcEENS_9allocatorIcEEE7__allocB8ne180100Ev, symObjAddr: 0x14F4, symBinAddr: 0x100003638, symSize: 0x24 }
  - { offsetInCU: 0xCE43, offset: 0xCE43, size: 0x8, addend: 0x0, symName: __ZNKSt3__117__compressed_pairINS_12basic_stringIcNS_11char_traitsIcEENS_9allocatorIcEEE5__repES5_E6secondB8ne180100Ev, symObjAddr: 0x1518, symBinAddr: 0x10000365C, symSize: 0x24 }
  - { offsetInCU: 0xCE68, offset: 0xCE68, size: 0x8, addend: 0x0, symName: __ZNKSt3__122__compressed_pair_elemINS_9allocatorIcEELi1ELb1EE5__getB8ne180100Ev, symObjAddr: 0x153C, symBinAddr: 0x100003680, symSize: 0x14 }
  - { offsetInCU: 0xCE8D, offset: 0xCE8D, size: 0x8, addend: 0x0, symName: __ZNSt3__112basic_stringIcNS_11char_traitsIcEENS_9allocatorIcEEEC2B8ne180100ERKS4_, symObjAddr: 0x1550, symBinAddr: 0x100003694, symSize: 0x4C }
  - { offsetInCU: 0xCEC5, offset: 0xCEC5, size: 0x8, addend: 0x0, symName: __ZNSt3__117__compressed_pairINS_12basic_stringIcNS_11char_traitsIcEENS_9allocatorIcEEE5__repES5_EC1B8ne180100INS_16__value_init_tagERKS5_EEOT_OT0_, symObjAddr: 0x159C, symBinAddr: 0x1000036E0, symSize: 0x3C }
  - { offsetInCU: 0xCF1C, offset: 0xCF1C, size: 0x8, addend: 0x0, symName: __ZNSt3__117__compressed_pairINS_12basic_stringIcNS_11char_traitsIcEENS_9allocatorIcEEE5__repES5_EC2B8ne180100INS_16__value_init_tagERKS5_EEOT_OT0_, symObjAddr: 0x15D8, symBinAddr: 0x10000371C, symSize: 0x40 }
  - { offsetInCU: 0xCF73, offset: 0xCF73, size: 0x8, addend: 0x0, symName: __ZNSt3__122__compressed_pair_elemINS_9allocatorIcEELi1ELb1EEC2B8ne180100IRKS2_vEEOT_, symObjAddr: 0x1618, symBinAddr: 0x10000375C, symSize: 0x18 }
  - { offsetInCU: 0xCFD2, offset: 0xCFD2, size: 0x8, addend: 0x0, symName: __ZNKSt3__113basic_istreamIcNS_11char_traitsIcEEE6sentrycvbB8ne180100Ev, symObjAddr: 0x1630, symBinAddr: 0x100003774, symSize: 0x1C }
  - { offsetInCU: 0xCFF6, offset: 0xCFF6, size: 0x8, addend: 0x0, symName: __ZNSt3__112basic_stringIcNS_11char_traitsIcEENS_9allocatorIcEEE5clearB8ne180100Ev, symObjAddr: 0x164C, symBinAddr: 0x100003790, symSize: 0x94 }
  - { offsetInCU: 0xD02B, offset: 0xD02B, size: 0x8, addend: 0x0, symName: __ZNKSt3__19basic_iosIcNS_11char_traitsIcEEE5rdbufB8ne180100Ev, symObjAddr: 0x16E0, symBinAddr: 0x100003824, symSize: 0x24 }
  - { offsetInCU: 0xD052, offset: 0xD052, size: 0x8, addend: 0x0, symName: __ZNSt3__115basic_streambufIcNS_11char_traitsIcEEE6sbumpcB8ne180100Ev, symObjAddr: 0x1704, symBinAddr: 0x100003848, symSize: 0x78 }
  - { offsetInCU: 0xD077, offset: 0xD077, size: 0x8, addend: 0x0, symName: __ZNSt3__111char_traitsIcE11eq_int_typeB8ne180100Eii, symObjAddr: 0x177C, symBinAddr: 0x1000038C0, symSize: 0x28 }
  - { offsetInCU: 0xD0AA, offset: 0xD0AA, size: 0x8, addend: 0x0, symName: __ZNSt3__111char_traitsIcE12to_char_typeB8ne180100Ei, symObjAddr: 0x17A4, symBinAddr: 0x1000038E8, symSize: 0x18 }
  - { offsetInCU: 0xD0CE, offset: 0xD0CE, size: 0x8, addend: 0x0, symName: __ZNSt3__111char_traitsIcE2eqEcc, symObjAddr: 0x17BC, symBinAddr: 0x100003900, symSize: 0x28 }
  - { offsetInCU: 0xD0FF, offset: 0xD0FF, size: 0x8, addend: 0x0, symName: __ZNKSt3__112basic_stringIcNS_11char_traitsIcEENS_9allocatorIcEEE4sizeB8ne180100Ev, symObjAddr: 0x17E4, symBinAddr: 0x100003928, symSize: 0x54 }
  - { offsetInCU: 0xD124, offset: 0xD124, size: 0x8, addend: 0x0, symName: __ZNKSt3__112basic_stringIcNS_11char_traitsIcEENS_9allocatorIcEEE8max_sizeB8ne180100Ev, symObjAddr: 0x1838, symBinAddr: 0x10000397C, symSize: 0xAC }
  - { offsetInCU: 0xD176, offset: 0xD176, size: 0x8, addend: 0x0, symName: __ZNSt3__18ios_base18__setstate_nothrowB8ne180100Ej, symObjAddr: 0x18E4, symBinAddr: 0x100003A28, symSize: 0x64 }
  - { offsetInCU: 0xD1AA, offset: 0xD1AA, size: 0x8, addend: 0x0, symName: __ZNKSt3__19basic_iosIcNS_11char_traitsIcEEE10exceptionsB8ne180100Ev, symObjAddr: 0x1948, symBinAddr: 0x100003A8C, symSize: 0x24 }
  - { offsetInCU: 0xD1CF, offset: 0xD1CF, size: 0x8, addend: 0x0, symName: __ZNSt3__111char_traitsIcE6assignB8ne180100ERcRKc, symObjAddr: 0x196C, symBinAddr: 0x100003AB0, symSize: 0x24 }
  - { offsetInCU: 0xD200, offset: 0xD200, size: 0x8, addend: 0x0, symName: __ZNSt3__112basic_stringIcNS_11char_traitsIcEENS_9allocatorIcEEE18__get_long_pointerB8ne180100Ev, symObjAddr: 0x1990, symBinAddr: 0x100003AD4, symSize: 0x28 }
  - { offsetInCU: 0xD225, offset: 0xD225, size: 0x8, addend: 0x0, symName: __ZNSt3__112basic_stringIcNS_11char_traitsIcEENS_9allocatorIcEEE15__set_long_sizeB8ne180100Em, symObjAddr: 0x19B8, symBinAddr: 0x100003AFC, symSize: 0x38 }
  - { offsetInCU: 0xD259, offset: 0xD259, size: 0x8, addend: 0x0, symName: __ZNSt3__112basic_stringIcNS_11char_traitsIcEENS_9allocatorIcEEE19__get_short_pointerB8ne180100Ev, symObjAddr: 0x19F0, symBinAddr: 0x100003B34, symSize: 0x28 }
  - { offsetInCU: 0xD27E, offset: 0xD27E, size: 0x8, addend: 0x0, symName: __ZNSt3__112basic_stringIcNS_11char_traitsIcEENS_9allocatorIcEEE16__set_short_sizeB8ne180100Em, symObjAddr: 0x1A18, symBinAddr: 0x100003B5C, symSize: 0x78 }
  - { offsetInCU: 0xD2B2, offset: 0xD2B2, size: 0x8, addend: 0x0, symName: __ZNKSt3__112basic_stringIcNS_11char_traitsIcEENS_9allocatorIcEEE17__annotate_shrinkB8ne180100Em, symObjAddr: 0x1A90, symBinAddr: 0x100003BD4, symSize: 0x14 }
  - { offsetInCU: 0xD2E6, offset: 0xD2E6, size: 0x8, addend: 0x0, symName: __ZNSt3__117__compressed_pairINS_12basic_stringIcNS_11char_traitsIcEENS_9allocatorIcEEE5__repES5_E5firstB8ne180100Ev, symObjAddr: 0x1AA4, symBinAddr: 0x100003BE8, symSize: 0x24 }
  - { offsetInCU: 0xD30B, offset: 0xD30B, size: 0x8, addend: 0x0, symName: __ZNSt3__122__compressed_pair_elemINS_12basic_stringIcNS_11char_traitsIcEENS_9allocatorIcEEE5__repELi0ELb0EE5__getB8ne180100Ev, symObjAddr: 0x1AC8, symBinAddr: 0x100003C0C, symSize: 0x14 }
  - { offsetInCU: 0xD330, offset: 0xD330, size: 0x8, addend: 0x0, symName: __ZNSt3__114pointer_traitsIPcE10pointer_toB8ne180100ERc, symObjAddr: 0x1ADC, symBinAddr: 0x100003C20, symSize: 0x14 }
  - { offsetInCU: 0xD353, offset: 0xD353, size: 0x8, addend: 0x0, symName: __ZNKSt3__18ios_base5rdbufB8ne180100Ev, symObjAddr: 0x1AF0, symBinAddr: 0x100003C34, symSize: 0x18 }
  - { offsetInCU: 0xD378, offset: 0xD378, size: 0x8, addend: 0x0, symName: __ZNSt3__111char_traitsIcE11to_int_typeB8ne180100Ec, symObjAddr: 0x1B08, symBinAddr: 0x100003C4C, symSize: 0x14 }
  - { offsetInCU: 0xD39C, offset: 0xD39C, size: 0x8, addend: 0x0, symName: __ZNKSt3__112basic_stringIcNS_11char_traitsIcEENS_9allocatorIcEEE15__get_long_sizeB8ne180100Ev, symObjAddr: 0x1B1C, symBinAddr: 0x100003C60, symSize: 0x28 }
  - { offsetInCU: 0xD3C1, offset: 0xD3C1, size: 0x8, addend: 0x0, symName: __ZNKSt3__112basic_stringIcNS_11char_traitsIcEENS_9allocatorIcEEE16__get_short_sizeB8ne180100Ev, symObjAddr: 0x1B44, symBinAddr: 0x100003C88, symSize: 0x34 }
  - { offsetInCU: 0xD3F0, offset: 0xD3F0, size: 0x8, addend: 0x0, symName: __ZNSt3__116allocator_traitsINS_9allocatorIcEEE8max_sizeB8ne180100IS2_vEEmRKS2_, symObjAddr: 0x1B78, symBinAddr: 0x100003CBC, symSize: 0x24 }
  - { offsetInCU: 0xD41E, offset: 0xD41E, size: 0x8, addend: 0x0, symName: __ZNSt3__114numeric_limitsImE3maxB8ne180100Ev, symObjAddr: 0x1B9C, symBinAddr: 0x100003CE0, symSize: 0x14 }
  - { offsetInCU: 0xD432, offset: 0xD432, size: 0x8, addend: 0x0, symName: __ZNKSt3__19allocatorIcE8max_sizeB8ne180100Ev, symObjAddr: 0x1BB0, symBinAddr: 0x100003CF4, symSize: 0x14 }
  - { offsetInCU: 0xD457, offset: 0xD457, size: 0x8, addend: 0x0, symName: __ZNSt3__123__libcpp_numeric_limitsImLb1EE3maxB8ne180100Ev, symObjAddr: 0x1BC4, symBinAddr: 0x100003D08, symSize: 0x8 }
  - { offsetInCU: 0xD46B, offset: 0xD46B, size: 0x8, addend: 0x0, symName: __ZNKSt3__18ios_base10exceptionsB8ne180100Ev, symObjAddr: 0x1BCC, symBinAddr: 0x100003D10, symSize: 0x18 }
  - { offsetInCU: 0xD492, offset: 0xD492, size: 0x8, addend: 0x0, symName: __ZNSt3__16vectorI13TelemetryDataNS_9allocatorIS1_EEE9__end_capB8ne180100Ev, symObjAddr: 0x1BE4, symBinAddr: 0x100003D28, symSize: 0x28 }
  - { offsetInCU: 0xD4B7, offset: 0xD4B7, size: 0x8, addend: 0x0, symName: __ZNSt3__16vectorI13TelemetryDataNS_9allocatorIS1_EEE22__construct_one_at_endB8ne180100IJRfS6_S6_RNS_12basic_stringIcNS_11char_traitsIcEENS2_IcEEEEEEEvDpOT_, symObjAddr: 0x1C0C, symBinAddr: 0x100003D50, symSize: 0xA8 }
  - { offsetInCU: 0xD540, offset: 0xD540, size: 0x8, addend: 0x0, symName: __ZNSt3__16vectorI13TelemetryDataNS_9allocatorIS1_EEE24__emplace_back_slow_pathIJRfS6_S6_RNS_12basic_stringIcNS_11char_traitsIcEENS2_IcEEEEEEEPS1_DpOT_, symObjAddr: 0x1CB4, symBinAddr: 0x100003DF8, symSize: 0x100 }
  - { offsetInCU: 0xD5DB, offset: 0xD5DB, size: 0x8, addend: 0x0, symName: __ZNSt3__117__compressed_pairIP13TelemetryDataNS_9allocatorIS1_EEE5firstB8ne180100Ev, symObjAddr: 0x1DB4, symBinAddr: 0x100003EF8, symSize: 0x24 }
  - { offsetInCU: 0xD600, offset: 0xD600, size: 0x8, addend: 0x0, symName: __ZNSt3__122__compressed_pair_elemIP13TelemetryDataLi0ELb0EE5__getB8ne180100Ev, symObjAddr: 0x1DD8, symBinAddr: 0x100003F1C, symSize: 0x14 }
  - { offsetInCU: 0xD63E, offset: 0xD63E, size: 0x8, addend: 0x0, symName: __ZNSt3__16vectorI13TelemetryDataNS_9allocatorIS1_EEE21_ConstructTransactionC1B8ne180100ERS4_m, symObjAddr: 0x1DEC, symBinAddr: 0x100003F30, symSize: 0x3C }
  - { offsetInCU: 0xD685, offset: 0xD685, size: 0x8, addend: 0x0, symName: __ZNSt3__116allocator_traitsINS_9allocatorI13TelemetryDataEEE9constructB8ne180100IS2_JRfS6_S6_RNS_12basic_stringIcNS_11char_traitsIcEENS1_IcEEEEEvEEvRS3_PT_DpOT0_, symObjAddr: 0x1E28, symBinAddr: 0x100003F6C, symSize: 0x4C }
  - { offsetInCU: 0xD718, offset: 0xD718, size: 0x8, addend: 0x0, symName: __ZNSt3__16vectorI13TelemetryDataNS_9allocatorIS1_EEE7__allocB8ne180100Ev, symObjAddr: 0x1E74, symBinAddr: 0x100003FB8, symSize: 0x28 }
  - { offsetInCU: 0xD73D, offset: 0xD73D, size: 0x8, addend: 0x0, symName: __ZNSt3__16vectorI13TelemetryDataNS_9allocatorIS1_EEE21_ConstructTransactionD1B8ne180100Ev, symObjAddr: 0x1EB0, symBinAddr: 0x100003FF4, symSize: 0x2C }
  - { offsetInCU: 0xD766, offset: 0xD766, size: 0x8, addend: 0x0, symName: __ZNSt3__16vectorI13TelemetryDataNS_9allocatorIS1_EEE21_ConstructTransactionC2B8ne180100ERS4_m, symObjAddr: 0x1EDC, symBinAddr: 0x100004020, symSize: 0x4C }
  - { offsetInCU: 0xD7AD, offset: 0xD7AD, size: 0x8, addend: 0x0, symName: __ZNSt3__19allocatorI13TelemetryDataE9constructB8ne180100IS1_JRfS4_S4_RNS_12basic_stringIcNS_11char_traitsIcEENS0_IcEEEEEEEvPT_DpOT0_, symObjAddr: 0x1F28, symBinAddr: 0x10000406C, symSize: 0x54 }
  - { offsetInCU: 0xD83B, offset: 0xD83B, size: 0x8, addend: 0x0, symName: __ZNSt3__117__compressed_pairIP13TelemetryDataNS_9allocatorIS1_EEE6secondB8ne180100Ev, symObjAddr: 0x1F7C, symBinAddr: 0x1000040C0, symSize: 0x24 }
  - { offsetInCU: 0xD860, offset: 0xD860, size: 0x8, addend: 0x0, symName: __ZNSt3__122__compressed_pair_elemINS_9allocatorI13TelemetryDataEELi1ELb1EE5__getB8ne180100Ev, symObjAddr: 0x1FA0, symBinAddr: 0x1000040E4, symSize: 0x14 }
  - { offsetInCU: 0xD885, offset: 0xD885, size: 0x8, addend: 0x0, symName: __ZNSt3__16vectorI13TelemetryDataNS_9allocatorIS1_EEE21_ConstructTransactionD2B8ne180100Ev, symObjAddr: 0x1FB4, symBinAddr: 0x1000040F8, symSize: 0x20 }
  - { offsetInCU: 0xD8AD, offset: 0xD8AD, size: 0x8, addend: 0x0, symName: __ZNKSt3__16vectorI13TelemetryDataNS_9allocatorIS1_EEE11__recommendB8ne180100Em, symObjAddr: 0x1FD4, symBinAddr: 0x100004118, symSize: 0xB4 }
  - { offsetInCU: 0xD901, offset: 0xD901, size: 0x8, addend: 0x0, symName: __ZNKSt3__16vectorI13TelemetryDataNS_9allocatorIS1_EEE4sizeB8ne180100Ev, symObjAddr: 0x2088, symBinAddr: 0x1000041CC, symSize: 0x28 }
  - { offsetInCU: 0xD926, offset: 0xD926, size: 0x8, addend: 0x0, symName: __ZNSt3__114__split_bufferI13TelemetryDataRNS_9allocatorIS1_EEEC1EmmS4_, symObjAddr: 0x20B0, symBinAddr: 0x1000041F4, symSize: 0x44 }
  - { offsetInCU: 0xD97B, offset: 0xD97B, size: 0x8, addend: 0x0, symName: __ZNSt3__114__split_bufferI13TelemetryDataRNS_9allocatorIS1_EEED1Ev, symObjAddr: 0x2204, symBinAddr: 0x100004348, symSize: 0x2C }
  - { offsetInCU: 0xD9A5, offset: 0xD9A5, size: 0x8, addend: 0x0, symName: __ZNKSt3__16vectorI13TelemetryDataNS_9allocatorIS1_EEE8max_sizeEv, symObjAddr: 0x2230, symBinAddr: 0x100004374, symSize: 0x60 }
  - { offsetInCU: 0xD9CC, offset: 0xD9CC, size: 0x8, addend: 0x0, symName: __ZNKSt3__16vectorI13TelemetryDataNS_9allocatorIS1_EEE20__throw_length_errorB8ne180100Ev, symObjAddr: 0x2290, symBinAddr: 0x1000043D4, symSize: 0x1C }
  - { offsetInCU: 0xD9F1, offset: 0xD9F1, size: 0x8, addend: 0x0, symName: __ZNKSt3__16vectorI13TelemetryDataNS_9allocatorIS1_EEE8capacityB8ne180100Ev, symObjAddr: 0x22AC, symBinAddr: 0x1000043F0, symSize: 0x40 }
  - { offsetInCU: 0xDA20, offset: 0xDA20, size: 0x8, addend: 0x0, symName: __ZNSt3__116allocator_traitsINS_9allocatorI13TelemetryDataEEE8max_sizeB8ne180100IS3_vEEmRKS3_, symObjAddr: 0x2344, symBinAddr: 0x100004488, symSize: 0x24 }
  - { offsetInCU: 0xDA4E, offset: 0xDA4E, size: 0x8, addend: 0x0, symName: __ZNKSt3__16vectorI13TelemetryDataNS_9allocatorIS1_EEE7__allocB8ne180100Ev, symObjAddr: 0x2368, symBinAddr: 0x1000044AC, symSize: 0x28 }
  - { offsetInCU: 0xDA73, offset: 0xDA73, size: 0x8, addend: 0x0, symName: __ZNSt3__114numeric_limitsIlE3maxB8ne180100Ev, symObjAddr: 0x2390, symBinAddr: 0x1000044D4, symSize: 0x14 }
  - { offsetInCU: 0xDA9B, offset: 0xDA9B, size: 0x8, addend: 0x0, symName: __ZNKSt3__16__lessIvvEclB8ne180100ImmEEbRKT_RKT0_, symObjAddr: 0x23F8, symBinAddr: 0x10000453C, symSize: 0x34 }
  - { offsetInCU: 0xDAEE, offset: 0xDAEE, size: 0x8, addend: 0x0, symName: __ZNKSt3__19allocatorI13TelemetryDataE8max_sizeB8ne180100Ev, symObjAddr: 0x242C, symBinAddr: 0x100004570, symSize: 0x18 }
  - { offsetInCU: 0xDB13, offset: 0xDB13, size: 0x8, addend: 0x0, symName: __ZNKSt3__117__compressed_pairIP13TelemetryDataNS_9allocatorIS1_EEE6secondB8ne180100Ev, symObjAddr: 0x2444, symBinAddr: 0x100004588, symSize: 0x24 }
  - { offsetInCU: 0xDB38, offset: 0xDB38, size: 0x8, addend: 0x0, symName: __ZNKSt3__122__compressed_pair_elemINS_9allocatorI13TelemetryDataEELi1ELb1EE5__getB8ne180100Ev, symObjAddr: 0x2468, symBinAddr: 0x1000045AC, symSize: 0x14 }
  - { offsetInCU: 0xDB5D, offset: 0xDB5D, size: 0x8, addend: 0x0, symName: __ZNSt3__123__libcpp_numeric_limitsIlLb1EE3maxB8ne180100Ev, symObjAddr: 0x247C, symBinAddr: 0x1000045C0, symSize: 0x8 }
  - { offsetInCU: 0xDB71, offset: 0xDB71, size: 0x8, addend: 0x0, symName: __ZNSt12length_errorC1B8ne180100EPKc, symObjAddr: 0x24E8, symBinAddr: 0x10000462C, symSize: 0x34 }
  - { offsetInCU: 0xDBA8, offset: 0xDBA8, size: 0x8, addend: 0x0, symName: __ZNSt12length_errorC2B8ne180100EPKc, symObjAddr: 0x251C, symBinAddr: 0x100004660, symSize: 0x4C }
  - { offsetInCU: 0xDBDF, offset: 0xDBDF, size: 0x8, addend: 0x0, symName: __ZNKSt3__16vectorI13TelemetryDataNS_9allocatorIS1_EEE9__end_capB8ne180100Ev, symObjAddr: 0x2568, symBinAddr: 0x1000046AC, symSize: 0x28 }
  - { offsetInCU: 0xDC04, offset: 0xDC04, size: 0x8, addend: 0x0, symName: __ZNKSt3__117__compressed_pairIP13TelemetryDataNS_9allocatorIS1_EEE5firstB8ne180100Ev, symObjAddr: 0x2590, symBinAddr: 0x1000046D4, symSize: 0x24 }
  - { offsetInCU: 0xDC29, offset: 0xDC29, size: 0x8, addend: 0x0, symName: __ZNKSt3__122__compressed_pair_elemIP13TelemetryDataLi0ELb0EE5__getB8ne180100Ev, symObjAddr: 0x25B4, symBinAddr: 0x1000046F8, symSize: 0x14 }
  - { offsetInCU: 0xDC4E, offset: 0xDC4E, size: 0x8, addend: 0x0, symName: __ZNSt3__114__split_bufferI13TelemetryDataRNS_9allocatorIS1_EEEC2EmmS4_, symObjAddr: 0x261C, symBinAddr: 0x100004760, symSize: 0xE0 }
  - { offsetInCU: 0xDCC6, offset: 0xDCC6, size: 0x8, addend: 0x0, symName: __ZNSt3__117__compressed_pairIP13TelemetryDataRNS_9allocatorIS1_EEEC1B8ne180100IDnS5_EEOT_OT0_, symObjAddr: 0x26FC, symBinAddr: 0x100004840, symSize: 0x3C }
  - { offsetInCU: 0xDD1D, offset: 0xDD1D, size: 0x8, addend: 0x0, symName: __ZNSt3__114__split_bufferI13TelemetryDataRNS_9allocatorIS1_EEE7__allocB8ne180100Ev, symObjAddr: 0x2778, symBinAddr: 0x1000048BC, symSize: 0x28 }
  - { offsetInCU: 0xDD42, offset: 0xDD42, size: 0x8, addend: 0x0, symName: __ZNSt3__114__split_bufferI13TelemetryDataRNS_9allocatorIS1_EEE9__end_capB8ne180100Ev, symObjAddr: 0x27A0, symBinAddr: 0x1000048E4, symSize: 0x28 }
  - { offsetInCU: 0xDD67, offset: 0xDD67, size: 0x8, addend: 0x0, symName: __ZNSt3__117__compressed_pairIP13TelemetryDataRNS_9allocatorIS1_EEEC2B8ne180100IDnS5_EEOT_OT0_, symObjAddr: 0x27C8, symBinAddr: 0x10000490C, symSize: 0x48 }
  - { offsetInCU: 0xDDBE, offset: 0xDDBE, size: 0x8, addend: 0x0, symName: __ZNSt3__122__compressed_pair_elemIP13TelemetryDataLi0ELb0EEC2B8ne180100IDnvEEOT_, symObjAddr: 0x2810, symBinAddr: 0x100004954, symSize: 0x1C }
  - { offsetInCU: 0xDDFF, offset: 0xDDFF, size: 0x8, addend: 0x0, symName: __ZNSt3__122__compressed_pair_elemIRNS_9allocatorI13TelemetryDataEELi1ELb0EEC2B8ne180100IS4_vEEOT_, symObjAddr: 0x282C, symBinAddr: 0x100004970, symSize: 0x20 }
  - { offsetInCU: 0xDE40, offset: 0xDE40, size: 0x8, addend: 0x0, symName: __ZNSt3__19allocatorI13TelemetryDataE8allocateB8ne180100Em, symObjAddr: 0x284C, symBinAddr: 0x100004990, symSize: 0x5C }
  - { offsetInCU: 0xDE73, offset: 0xDE73, size: 0x8, addend: 0x0, symName: __ZNSt3__117__compressed_pairIP13TelemetryDataRNS_9allocatorIS1_EEE6secondB8ne180100Ev, symObjAddr: 0x2928, symBinAddr: 0x100004A6C, symSize: 0x28 }
  - { offsetInCU: 0xDE98, offset: 0xDE98, size: 0x8, addend: 0x0, symName: __ZNSt3__122__compressed_pair_elemIRNS_9allocatorI13TelemetryDataEELi1ELb0EE5__getB8ne180100Ev, symObjAddr: 0x2950, symBinAddr: 0x100004A94, symSize: 0x18 }
  - { offsetInCU: 0xDEBD, offset: 0xDEBD, size: 0x8, addend: 0x0, symName: __ZNSt3__117__compressed_pairIP13TelemetryDataRNS_9allocatorIS1_EEE5firstB8ne180100Ev, symObjAddr: 0x2968, symBinAddr: 0x100004AAC, symSize: 0x24 }
  - { offsetInCU: 0xDEE2, offset: 0xDEE2, size: 0x8, addend: 0x0, symName: __ZNKSt3__16vectorI13TelemetryDataNS_9allocatorIS1_EEE17__annotate_deleteB8ne180100Ev, symObjAddr: 0x298C, symBinAddr: 0x100004AD0, symSize: 0x10 }
  - { offsetInCU: 0xDF07, offset: 0xDF07, size: 0x8, addend: 0x0, symName: __ZNSt3__116reverse_iteratorIP13TelemetryDataEC1B8ne180100ES2_, symObjAddr: 0x2AC8, symBinAddr: 0x100004C0C, symSize: 0x34 }
  - { offsetInCU: 0xDF3E, offset: 0xDF3E, size: 0x8, addend: 0x0, symName: __ZNKSt3__116reverse_iteratorIP13TelemetryDataE4baseB8ne180100Ev, symObjAddr: 0x2AFC, symBinAddr: 0x100004C40, symSize: 0x18 }
  - { offsetInCU: 0xDF63, offset: 0xDF63, size: 0x8, addend: 0x0, symName: __ZNKSt3__16vectorI13TelemetryDataNS_9allocatorIS1_EEE14__annotate_newB8ne180100Em, symObjAddr: 0x2B50, symBinAddr: 0x100004C94, symSize: 0x14 }
  - { offsetInCU: 0xDF97, offset: 0xDF97, size: 0x8, addend: 0x0, symName: __ZNSt3__129_AllocatorDestroyRangeReverseINS_9allocatorI13TelemetryDataEENS_16reverse_iteratorIPS2_EEEC1B8ne180100ERS3_RS6_S9_, symObjAddr: 0x2BB0, symBinAddr: 0x100004CF4, symSize: 0x44 }
  - { offsetInCU: 0xDFF2, offset: 0xDFF2, size: 0x8, addend: 0x0, symName: __ZNSt3__116allocator_traitsINS_9allocatorI13TelemetryDataEEE9constructB8ne180100IS2_JS2_EvEEvRS3_PT_DpOT0_, symObjAddr: 0x2C3C, symBinAddr: 0x100004D80, symSize: 0x34 }
  - { offsetInCU: 0xE049, offset: 0xE049, size: 0x8, addend: 0x0, symName: __ZNKSt3__116reverse_iteratorIP13TelemetryDataEdeB8ne180100Ev, symObjAddr: 0x2C94, symBinAddr: 0x100004DD8, symSize: 0x28 }
  - { offsetInCU: 0xE07C, offset: 0xE07C, size: 0x8, addend: 0x0, symName: __ZNSt3__116reverse_iteratorIP13TelemetryDataEppB8ne180100Ev, symObjAddr: 0x2CBC, symBinAddr: 0x100004E00, symSize: 0x20 }
  - { offsetInCU: 0xE0A1, offset: 0xE0A1, size: 0x8, addend: 0x0, symName: __ZNSt3__128__exception_guard_exceptionsINS_29_AllocatorDestroyRangeReverseINS_9allocatorI13TelemetryDataEENS_16reverse_iteratorIPS3_EEEEE10__completeB8ne180100Ev, symObjAddr: 0x2CDC, symBinAddr: 0x100004E20, symSize: 0x1C }
  - { offsetInCU: 0xE0C6, offset: 0xE0C6, size: 0x8, addend: 0x0, symName: __ZNSt3__128__exception_guard_exceptionsINS_29_AllocatorDestroyRangeReverseINS_9allocatorI13TelemetryDataEENS_16reverse_iteratorIPS3_EEEEED1B8ne180100Ev, symObjAddr: 0x2CF8, symBinAddr: 0x100004E3C, symSize: 0x2C }
  - { offsetInCU: 0xE0EF, offset: 0xE0EF, size: 0x8, addend: 0x0, symName: __ZNSt3__128__exception_guard_exceptionsINS_29_AllocatorDestroyRangeReverseINS_9allocatorI13TelemetryDataEENS_16reverse_iteratorIPS3_EEEEEC1B8ne180100ES8_, symObjAddr: 0x2D24, symBinAddr: 0x100004E68, symSize: 0x34 }
  - { offsetInCU: 0xE127, offset: 0xE127, size: 0x8, addend: 0x0, symName: __ZNSt3__128__exception_guard_exceptionsINS_29_AllocatorDestroyRangeReverseINS_9allocatorI13TelemetryDataEENS_16reverse_iteratorIPS3_EEEEEC2B8ne180100ES8_, symObjAddr: 0x2D58, symBinAddr: 0x100004E9C, symSize: 0x30 }
  - { offsetInCU: 0xE15F, offset: 0xE15F, size: 0x8, addend: 0x0, symName: __ZNSt3__129_AllocatorDestroyRangeReverseINS_9allocatorI13TelemetryDataEENS_16reverse_iteratorIPS2_EEEC2B8ne180100ERS3_RS6_S9_, symObjAddr: 0x2D88, symBinAddr: 0x100004ECC, symSize: 0x38 }
  - { offsetInCU: 0xE1B5, offset: 0xE1B5, size: 0x8, addend: 0x0, symName: __ZNSt3__19allocatorI13TelemetryDataE9constructB8ne180100IS1_JS1_EEEvPT_DpOT0_, symObjAddr: 0x2DC0, symBinAddr: 0x100004F04, symSize: 0x30 }
  - { offsetInCU: 0xE20A, offset: 0xE20A, size: 0x8, addend: 0x0, symName: __ZN13TelemetryDataC1EOS_, symObjAddr: 0x2DF0, symBinAddr: 0x100004F34, symSize: 0x34 }
  - { offsetInCU: 0xE23E, offset: 0xE23E, size: 0x8, addend: 0x0, symName: __ZN13TelemetryDataC2EOS_, symObjAddr: 0x2E24, symBinAddr: 0x100004F68, symSize: 0x50 }
  - { offsetInCU: 0xE272, offset: 0xE272, size: 0x8, addend: 0x0, symName: __ZNSt3__112basic_stringIcNS_11char_traitsIcEENS_9allocatorIcEEEC1B8ne180100EOS5_, symObjAddr: 0x2E74, symBinAddr: 0x100004FB8, symSize: 0x34 }
  - { offsetInCU: 0xE2AA, offset: 0xE2AA, size: 0x8, addend: 0x0, symName: __ZNSt3__112basic_stringIcNS_11char_traitsIcEENS_9allocatorIcEEEC2B8ne180100EOS5_, symObjAddr: 0x2EA8, symBinAddr: 0x100004FEC, symSize: 0xB8 }
  - { offsetInCU: 0xE312, offset: 0xE312, size: 0x8, addend: 0x0, symName: __ZZNSt3__112basic_stringIcNS_11char_traitsIcEENS_9allocatorIcEEEC1B8ne180100EOS5_ENKUlRS5_E_clES7_, symObjAddr: 0x2F60, symBinAddr: 0x1000050A4, symSize: 0x40 }
  - { offsetInCU: 0xE34A, offset: 0xE34A, size: 0x8, addend: 0x0, symName: __ZNKSt3__112basic_stringIcNS_11char_traitsIcEENS_9allocatorIcEEE17__annotate_deleteB8ne180100Ev, symObjAddr: 0x2FA0, symBinAddr: 0x1000050E4, symSize: 0x10 }
  - { offsetInCU: 0xE374, offset: 0xE374, size: 0x8, addend: 0x0, symName: __ZNSt3__119__to_address_helperINS_16reverse_iteratorIP13TelemetryDataEEvE6__callB8ne180100ERKS4_, symObjAddr: 0x2FB0, symBinAddr: 0x1000050F4, symSize: 0x38 }
  - { offsetInCU: 0xE397, offset: 0xE397, size: 0x8, addend: 0x0, symName: __ZNKSt3__116reverse_iteratorIP13TelemetryDataEptB8ne180100Ev, symObjAddr: 0x2FE8, symBinAddr: 0x10000512C, symSize: 0x24 }
  - { offsetInCU: 0xE3BC, offset: 0xE3BC, size: 0x8, addend: 0x0, symName: __ZNSt3__128__exception_guard_exceptionsINS_29_AllocatorDestroyRangeReverseINS_9allocatorI13TelemetryDataEENS_16reverse_iteratorIPS3_EEEEED2B8ne180100Ev, symObjAddr: 0x300C, symBinAddr: 0x100005150, symSize: 0x50 }
  - { offsetInCU: 0xE3E5, offset: 0xE3E5, size: 0x8, addend: 0x0, symName: __ZNKSt3__129_AllocatorDestroyRangeReverseINS_9allocatorI13TelemetryDataEENS_16reverse_iteratorIPS2_EEEclB8ne180100Ev, symObjAddr: 0x305C, symBinAddr: 0x1000051A0, symSize: 0xB4 }
  - { offsetInCU: 0xE40B, offset: 0xE40B, size: 0x8, addend: 0x0, symName: __ZNSt3__116reverse_iteratorINS0_IP13TelemetryDataEEEC1B8ne180100ES3_, symObjAddr: 0x3180, symBinAddr: 0x1000052C4, symSize: 0x3C }
  - { offsetInCU: 0xE442, offset: 0xE442, size: 0x8, addend: 0x0, symName: __ZNSt3__116allocator_traitsINS_9allocatorI13TelemetryDataEEE7destroyB8ne180100IS2_vEEvRS3_PT_, symObjAddr: 0x321C, symBinAddr: 0x100005360, symSize: 0x2C }
  - { offsetInCU: 0xE47F, offset: 0xE47F, size: 0x8, addend: 0x0, symName: __ZNSt3__116reverse_iteratorINS0_IP13TelemetryDataEEEppB8ne180100Ev, symObjAddr: 0x326C, symBinAddr: 0x1000053B0, symSize: 0x30 }
  - { offsetInCU: 0xE4A4, offset: 0xE4A4, size: 0x8, addend: 0x0, symName: __ZNKSt3__116reverse_iteratorINS0_IP13TelemetryDataEEE4baseB8ne180100Ev, symObjAddr: 0x329C, symBinAddr: 0x1000053E0, symSize: 0x24 }
  - { offsetInCU: 0xE4C9, offset: 0xE4C9, size: 0x8, addend: 0x0, symName: __ZNSt3__19allocatorI13TelemetryDataE7destroyB8ne180100EPS1_, symObjAddr: 0x32C0, symBinAddr: 0x100005404, symSize: 0x28 }
  - { offsetInCU: 0xE4FC, offset: 0xE4FC, size: 0x8, addend: 0x0, symName: __ZN13TelemetryDataD1Ev, symObjAddr: 0x32E8, symBinAddr: 0x10000542C, symSize: 0x2C }
  - { offsetInCU: 0xE527, offset: 0xE527, size: 0x8, addend: 0x0, symName: __ZN13TelemetryDataD2Ev, symObjAddr: 0x3314, symBinAddr: 0x100005458, symSize: 0x30 }
  - { offsetInCU: 0xE557, offset: 0xE557, size: 0x8, addend: 0x0, symName: __ZNSt3__119__to_address_helperINS_16reverse_iteratorINS1_IP13TelemetryDataEEEEvE6__callB8ne180100ERKS5_, symObjAddr: 0x3344, symBinAddr: 0x100005488, symSize: 0x38 }
  - { offsetInCU: 0xE57A, offset: 0xE57A, size: 0x8, addend: 0x0, symName: __ZNKSt3__116reverse_iteratorINS0_IP13TelemetryDataEEEptB8ne180100Ev, symObjAddr: 0x337C, symBinAddr: 0x1000054C0, symSize: 0x24 }
  - { offsetInCU: 0xE59F, offset: 0xE59F, size: 0x8, addend: 0x0, symName: __ZNKSt3__116reverse_iteratorINS0_IP13TelemetryDataEEEdeB8ne180100Ev, symObjAddr: 0x33A0, symBinAddr: 0x1000054E4, symSize: 0x34 }
  - { offsetInCU: 0xE5D2, offset: 0xE5D2, size: 0x8, addend: 0x0, symName: __ZNSt3__116reverse_iteratorIP13TelemetryDataEmmB8ne180100Ev, symObjAddr: 0x33D4, symBinAddr: 0x100005518, symSize: 0x20 }
  - { offsetInCU: 0xE5F7, offset: 0xE5F7, size: 0x8, addend: 0x0, symName: __ZNSt3__116reverse_iteratorINS0_IP13TelemetryDataEEEC2B8ne180100ES3_, symObjAddr: 0x33F4, symBinAddr: 0x100005538, symSize: 0x2C }
  - { offsetInCU: 0xE62E, offset: 0xE62E, size: 0x8, addend: 0x0, symName: __ZNSt3__116reverse_iteratorIP13TelemetryDataEC2B8ne180100ES2_, symObjAddr: 0x3420, symBinAddr: 0x100005564, symSize: 0x28 }
  - { offsetInCU: 0xE665, offset: 0xE665, size: 0x8, addend: 0x0, symName: __ZNSt3__114__split_bufferI13TelemetryDataRNS_9allocatorIS1_EEED2Ev, symObjAddr: 0x3448, symBinAddr: 0x10000558C, symSize: 0x8C }
  - { offsetInCU: 0xE690, offset: 0xE690, size: 0x8, addend: 0x0, symName: __ZNSt3__114__split_bufferI13TelemetryDataRNS_9allocatorIS1_EEE5clearB8ne180100Ev, symObjAddr: 0x34D4, symBinAddr: 0x100005618, symSize: 0x28 }
  - { offsetInCU: 0xE6B5, offset: 0xE6B5, size: 0x8, addend: 0x0, symName: __ZNSt3__116allocator_traitsINS_9allocatorI13TelemetryDataEEE10deallocateB8ne180100ERS3_PS2_m, symObjAddr: 0x34FC, symBinAddr: 0x100005640, symSize: 0x34 }
  - { offsetInCU: 0xE6F7, offset: 0xE6F7, size: 0x8, addend: 0x0, symName: __ZNKSt3__114__split_bufferI13TelemetryDataRNS_9allocatorIS1_EEE8capacityB8ne180100Ev, symObjAddr: 0x3530, symBinAddr: 0x100005674, symSize: 0x40 }
  - { offsetInCU: 0xE71C, offset: 0xE71C, size: 0x8, addend: 0x0, symName: __ZNSt3__114__split_bufferI13TelemetryDataRNS_9allocatorIS1_EEE17__destruct_at_endB8ne180100EPS1_, symObjAddr: 0x3570, symBinAddr: 0x1000056B4, symSize: 0x2C }
  - { offsetInCU: 0xE74E, offset: 0xE74E, size: 0x8, addend: 0x0, symName: __ZNSt3__114__split_bufferI13TelemetryDataRNS_9allocatorIS1_EEE17__destruct_at_endB8ne180100EPS1_NS_17integral_constantIbLb0EEE, symObjAddr: 0x359C, symBinAddr: 0x1000056E0, symSize: 0x80 }
  - { offsetInCU: 0xE78E, offset: 0xE78E, size: 0x8, addend: 0x0, symName: __ZNSt3__19allocatorI13TelemetryDataE10deallocateB8ne180100EPS1_m, symObjAddr: 0x361C, symBinAddr: 0x100005760, symSize: 0x44 }
  - { offsetInCU: 0xE7CF, offset: 0xE7CF, size: 0x8, addend: 0x0, symName: __ZNKSt3__114__split_bufferI13TelemetryDataRNS_9allocatorIS1_EEE9__end_capB8ne180100Ev, symObjAddr: 0x36DC, symBinAddr: 0x100005820, symSize: 0x28 }
  - { offsetInCU: 0xE7F4, offset: 0xE7F4, size: 0x8, addend: 0x0, symName: __ZNKSt3__117__compressed_pairIP13TelemetryDataRNS_9allocatorIS1_EEE5firstB8ne180100Ev, symObjAddr: 0x3704, symBinAddr: 0x100005848, symSize: 0x24 }
  - { offsetInCU: 0xE819, offset: 0xE819, size: 0x8, addend: 0x0, symName: __ZNSt3__16vectorI13TelemetryDataNS_9allocatorIS1_EEEC2ERKS4_, symObjAddr: 0x3728, symBinAddr: 0x10000586C, symSize: 0x94 }
  - { offsetInCU: 0xE853, offset: 0xE853, size: 0x8, addend: 0x0, symName: __ZNSt3__116allocator_traitsINS_9allocatorI13TelemetryDataEEE37select_on_container_copy_constructionB8ne180100IS3_vvEES3_RKS3_, symObjAddr: 0x37BC, symBinAddr: 0x100005900, symSize: 0x10 }
  - { offsetInCU: 0xE887, offset: 0xE887, size: 0x8, addend: 0x0, symName: __ZNSt3__117__compressed_pairIP13TelemetryDataNS_9allocatorIS1_EEEC1B8ne180100IDnS4_EEOT_OT0_, symObjAddr: 0x37CC, symBinAddr: 0x100005910, symSize: 0x3C }
  - { offsetInCU: 0xE8DE, offset: 0xE8DE, size: 0x8, addend: 0x0, symName: __ZNSt3__16vectorI13TelemetryDataNS_9allocatorIS1_EEE16__init_with_sizeB8ne180100IPS1_S6_EEvT_T0_m, symObjAddr: 0x3808, symBinAddr: 0x10000594C, symSize: 0xB8 }
  - { offsetInCU: 0xE951, offset: 0xE951, size: 0x8, addend: 0x0, symName: __ZNSt3__117__compressed_pairIP13TelemetryDataNS_9allocatorIS1_EEEC2B8ne180100IDnS4_EEOT_OT0_, symObjAddr: 0x38C0, symBinAddr: 0x100005A04, symSize: 0x44 }
  - { offsetInCU: 0xE9A8, offset: 0xE9A8, size: 0x8, addend: 0x0, symName: __ZNSt3__122__compressed_pair_elemINS_9allocatorI13TelemetryDataEELi1ELb1EEC2B8ne180100IS3_vEEOT_, symObjAddr: 0x3904, symBinAddr: 0x100005A48, symSize: 0x18 }
  - { offsetInCU: 0xE9E9, offset: 0xE9E9, size: 0x8, addend: 0x0, symName: __ZNSt3__16vectorI13TelemetryDataNS_9allocatorIS1_EEE16__destroy_vectorC1B8ne180100ERS4_, symObjAddr: 0x395C, symBinAddr: 0x100005AA0, symSize: 0x34 }
  - { offsetInCU: 0xEA21, offset: 0xEA21, size: 0x8, addend: 0x0, symName: __ZNSt3__16vectorI13TelemetryDataNS_9allocatorIS1_EEE11__vallocateB8ne180100Em, symObjAddr: 0x3990, symBinAddr: 0x100005AD4, symSize: 0xB4 }
  - { offsetInCU: 0xEA63, offset: 0xEA63, size: 0x8, addend: 0x0, symName: __ZNSt3__16vectorI13TelemetryDataNS_9allocatorIS1_EEE18__construct_at_endIPS1_S6_EEvT_T0_m, symObjAddr: 0x3A44, symBinAddr: 0x100005B88, symSize: 0x8C }
  - { offsetInCU: 0xEAD8, offset: 0xEAD8, size: 0x8, addend: 0x0, symName: __ZNSt3__128__exception_guard_exceptionsINS_6vectorI13TelemetryDataNS_9allocatorIS2_EEE16__destroy_vectorEE10__completeB8ne180100Ev, symObjAddr: 0x3AD0, symBinAddr: 0x100005C14, symSize: 0x1C }
  - { offsetInCU: 0xEAFD, offset: 0xEAFD, size: 0x8, addend: 0x0, symName: __ZNSt3__128__exception_guard_exceptionsINS_6vectorI13TelemetryDataNS_9allocatorIS2_EEE16__destroy_vectorEED1B8ne180100Ev, symObjAddr: 0x3AEC, symBinAddr: 0x100005C30, symSize: 0x2C }
  - { offsetInCU: 0xEB26, offset: 0xEB26, size: 0x8, addend: 0x0, symName: __ZNSt3__128__exception_guard_exceptionsINS_6vectorI13TelemetryDataNS_9allocatorIS2_EEE16__destroy_vectorEEC1B8ne180100ES6_, symObjAddr: 0x3B18, symBinAddr: 0x100005C5C, symSize: 0x34 }
  - { offsetInCU: 0xEB5D, offset: 0xEB5D, size: 0x8, addend: 0x0, symName: __ZNSt3__128__exception_guard_exceptionsINS_6vectorI13TelemetryDataNS_9allocatorIS2_EEE16__destroy_vectorEEC2B8ne180100ES6_, symObjAddr: 0x3B4C, symBinAddr: 0x100005C90, symSize: 0x24 }
  - { offsetInCU: 0xEB94, offset: 0xEB94, size: 0x8, addend: 0x0, symName: __ZNSt3__16vectorI13TelemetryDataNS_9allocatorIS1_EEE16__destroy_vectorC2B8ne180100ERS4_, symObjAddr: 0x3B70, symBinAddr: 0x100005CB4, symSize: 0x20 }
  - { offsetInCU: 0xEBEA, offset: 0xEBEA, size: 0x8, addend: 0x0, symName: __ZNSt3__14pairIP13TelemetryDataS2_EC1B8ne180100IS2_S2_Li0EEEOT_OT0_, symObjAddr: 0x3DFC, symBinAddr: 0x100005F40, symSize: 0x3C }
  - { offsetInCU: 0xEC47, offset: 0xEC47, size: 0x8, addend: 0x0, symName: __ZNSt3__14pairIP13TelemetryDataS2_EC2B8ne180100IS2_S2_Li0EEEOT_OT0_, symObjAddr: 0x3E38, symBinAddr: 0x100005F7C, symSize: 0x34 }
  - { offsetInCU: 0xECA4, offset: 0xECA4, size: 0x8, addend: 0x0, symName: __ZNSt3__129_AllocatorDestroyRangeReverseINS_9allocatorI13TelemetryDataEEPS2_EC1B8ne180100ERS3_RS4_S7_, symObjAddr: 0x3EB8, symBinAddr: 0x100005FFC, symSize: 0x44 }
  - { offsetInCU: 0xECFA, offset: 0xECFA, size: 0x8, addend: 0x0, symName: __ZNSt3__116allocator_traitsINS_9allocatorI13TelemetryDataEEE9constructB8ne180100IS2_JRS2_EvEEvRS3_PT_DpOT0_, symObjAddr: 0x3EFC, symBinAddr: 0x100006040, symSize: 0x34 }
  - { offsetInCU: 0xED51, offset: 0xED51, size: 0x8, addend: 0x0, symName: __ZNSt3__128__exception_guard_exceptionsINS_29_AllocatorDestroyRangeReverseINS_9allocatorI13TelemetryDataEEPS3_EEE10__completeB8ne180100Ev, symObjAddr: 0x3F30, symBinAddr: 0x100006074, symSize: 0x1C }
  - { offsetInCU: 0xED76, offset: 0xED76, size: 0x8, addend: 0x0, symName: __ZNSt3__128__exception_guard_exceptionsINS_29_AllocatorDestroyRangeReverseINS_9allocatorI13TelemetryDataEEPS3_EEED1B8ne180100Ev, symObjAddr: 0x3F4C, symBinAddr: 0x100006090, symSize: 0x2C }
  - { offsetInCU: 0xED9F, offset: 0xED9F, size: 0x8, addend: 0x0, symName: __ZNSt3__128__exception_guard_exceptionsINS_29_AllocatorDestroyRangeReverseINS_9allocatorI13TelemetryDataEEPS3_EEEC1B8ne180100ES6_, symObjAddr: 0x3F78, symBinAddr: 0x1000060BC, symSize: 0x34 }
  - { offsetInCU: 0xEDD7, offset: 0xEDD7, size: 0x8, addend: 0x0, symName: __ZNSt3__128__exception_guard_exceptionsINS_29_AllocatorDestroyRangeReverseINS_9allocatorI13TelemetryDataEEPS3_EEEC2B8ne180100ES6_, symObjAddr: 0x3FAC, symBinAddr: 0x1000060F0, symSize: 0x30 }
  - { offsetInCU: 0xEE0F, offset: 0xEE0F, size: 0x8, addend: 0x0, symName: __ZNSt3__129_AllocatorDestroyRangeReverseINS_9allocatorI13TelemetryDataEEPS2_EC2B8ne180100ERS3_RS4_S7_, symObjAddr: 0x3FDC, symBinAddr: 0x100006120, symSize: 0x38 }
  - { offsetInCU: 0xEE65, offset: 0xEE65, size: 0x8, addend: 0x0, symName: __ZNSt3__19allocatorI13TelemetryDataE9constructB8ne180100IS1_JRS1_EEEvPT_DpOT0_, symObjAddr: 0x4014, symBinAddr: 0x100006158, symSize: 0x30 }
  - { offsetInCU: 0xEEBA, offset: 0xEEBA, size: 0x8, addend: 0x0, symName: __ZN13TelemetryDataC1ERKS_, symObjAddr: 0x4044, symBinAddr: 0x100006188, symSize: 0x34 }
  - { offsetInCU: 0xEEEE, offset: 0xEEEE, size: 0x8, addend: 0x0, symName: __ZN13TelemetryDataC2ERKS_, symObjAddr: 0x4078, symBinAddr: 0x1000061BC, symSize: 0x50 }
  - { offsetInCU: 0xEF22, offset: 0xEF22, size: 0x8, addend: 0x0, symName: __ZNSt3__128__exception_guard_exceptionsINS_29_AllocatorDestroyRangeReverseINS_9allocatorI13TelemetryDataEEPS3_EEED2B8ne180100Ev, symObjAddr: 0x40C8, symBinAddr: 0x10000620C, symSize: 0x50 }
  - { offsetInCU: 0xEF4B, offset: 0xEF4B, size: 0x8, addend: 0x0, symName: __ZNKSt3__129_AllocatorDestroyRangeReverseINS_9allocatorI13TelemetryDataEEPS2_EclB8ne180100Ev, symObjAddr: 0x4118, symBinAddr: 0x10000625C, symSize: 0x68 }
  - { offsetInCU: 0xEF70, offset: 0xEF70, size: 0x8, addend: 0x0, symName: __ZNSt3__118__unwrap_iter_implIP13TelemetryDataLb1EE8__unwrapB8ne180100ES2_, symObjAddr: 0x41F0, symBinAddr: 0x100006334, symSize: 0x24 }
  - { offsetInCU: 0xEF93, offset: 0xEF93, size: 0x8, addend: 0x0, symName: __ZNSt3__118__unwrap_iter_implIP13TelemetryDataLb1EE8__rewrapB8ne180100ES2_S2_, symObjAddr: 0x4214, symBinAddr: 0x100006358, symSize: 0x58 }
  - { offsetInCU: 0xEFC4, offset: 0xEFC4, size: 0x8, addend: 0x0, symName: __ZNSt3__128__exception_guard_exceptionsINS_6vectorI13TelemetryDataNS_9allocatorIS2_EEE16__destroy_vectorEED2B8ne180100Ev, symObjAddr: 0x426C, symBinAddr: 0x1000063B0, symSize: 0x50 }
  - { offsetInCU: 0xEFED, offset: 0xEFED, size: 0x8, addend: 0x0, symName: __ZNSt3__16vectorI13TelemetryDataNS_9allocatorIS1_EEE16__destroy_vectorclB8ne180100Ev, symObjAddr: 0x42BC, symBinAddr: 0x100006400, symSize: 0x90 }
  - { offsetInCU: 0xF012, offset: 0xF012, size: 0x8, addend: 0x0, symName: __ZNSt3__16vectorI13TelemetryDataNS_9allocatorIS1_EEE7__clearB8ne180100Ev, symObjAddr: 0x434C, symBinAddr: 0x100006490, symSize: 0x28 }
  - { offsetInCU: 0xF037, offset: 0xF037, size: 0x8, addend: 0x0, symName: __ZNSt3__16vectorI13TelemetryDataNS_9allocatorIS1_EEE22__base_destruct_at_endB8ne180100EPS1_, symObjAddr: 0x4374, symBinAddr: 0x1000064B8, symSize: 0x8C }
  - { offsetInCU: 0x26, offset: 0xF19E, size: 0x8, addend: 0x0, symName: __ZN13TelemetryDataC2EfffRKNSt3__112basic_stringIcNS0_11char_traitsIcEENS0_9allocatorIcEEEE, symObjAddr: 0x0, symBinAddr: 0x100006544, symSize: 0x5C }
  - { offsetInCU: 0x4A36, offset: 0x13BAE, size: 0x8, addend: 0x0, symName: __ZN13TelemetryDataC2EfffRKNSt3__112basic_stringIcNS0_11char_traitsIcEENS0_9allocatorIcEEEE, symObjAddr: 0x0, symBinAddr: 0x100006544, symSize: 0x5C }
  - { offsetInCU: 0x4A99, offset: 0x13C11, size: 0x8, addend: 0x0, symName: __ZN13TelemetryDataC1EfffRKNSt3__112basic_stringIcNS0_11char_traitsIcEENS0_9allocatorIcEEEE, symObjAddr: 0x5C, symBinAddr: 0x1000065A0, symSize: 0x4C }
  - { offsetInCU: 0x3AB1, offset: 0x1772A, size: 0x8, addend: 0x0, symName: __ZNSt3__124__put_character_sequenceB8ne180100IcNS_11char_traitsIcEEEERNS_13basic_ostreamIT_T0_EES7_PKS4_m, symObjAddr: 0xDBC, symBinAddr: 0x100006EB4, symSize: 0x1EC }
  - { offsetInCU: 0x546F, offset: 0x190E8, size: 0x8, addend: 0x0, symName: __ZNSt3__1neB8ne180100IP13TelemetryDataEEbRKNS_11__wrap_iterIT_EES7_, symObjAddr: 0x354, symBinAddr: 0x100006940, symSize: 0x34 }
  - { offsetInCU: 0x54B2, offset: 0x1912B, size: 0x8, addend: 0x0, symName: __ZNSt3__1lsB8ne180100INS_11char_traitsIcEEEERNS_13basic_ostreamIcT_EES6_PKc, symObjAddr: 0x3A0, symBinAddr: 0x10000698C, symSize: 0x48 }
  - { offsetInCU: 0x54F8, offset: 0x19171, size: 0x8, addend: 0x0, symName: __ZNSt3__1lsB8ne180100IcNS_11char_traitsIcEENS_9allocatorIcEEEERNS_13basic_ostreamIT_T0_EES9_RKNS_12basic_stringIS6_S7_T1_EE, symObjAddr: 0x3E8, symBinAddr: 0x1000069D4, symSize: 0x4C }
  - { offsetInCU: 0x5550, offset: 0x191C9, size: 0x8, addend: 0x0, symName: __ZNSt3__1eqB8ne180100IP13TelemetryDataEEbRKNS_11__wrap_iterIT_EES7_, symObjAddr: 0x660, symBinAddr: 0x100006C24, symSize: 0x48 }
  - { offsetInCU: 0x5593, offset: 0x1920C, size: 0x8, addend: 0x0, symName: __ZNSt3__118__constexpr_strlenB8ne180100EPKc, symObjAddr: 0xD14, symBinAddr: 0x100006E0C, symSize: 0x24 }
  - { offsetInCU: 0x55BF, offset: 0x19238, size: 0x8, addend: 0x0, symName: __ZNSt3__116__pad_and_outputB8ne180100IcNS_11char_traitsIcEEEENS_19ostreambuf_iteratorIT_T0_EES6_PKS4_S8_S8_RNS_8ios_baseES4_, symObjAddr: 0xFC4, symBinAddr: 0x1000070BC, symSize: 0x240 }
  - { offsetInCU: 0x78CB, offset: 0x1B544, size: 0x8, addend: 0x0, symName: _main, symObjAddr: 0x0, symBinAddr: 0x1000065EC, symSize: 0x294 }
  - { offsetInCU: 0x79B9, offset: 0x1B632, size: 0x8, addend: 0x0, symName: __ZN10DataParserC1Ev, symObjAddr: 0x294, symBinAddr: 0x100006880, symSize: 0x2C }
  - { offsetInCU: 0x79E9, offset: 0x1B662, size: 0x8, addend: 0x0, symName: __ZNSt3__112basic_stringIcNS_11char_traitsIcEENS_9allocatorIcEEEC1B8ne180100ILi0EEEPKc, symObjAddr: 0x2C0, symBinAddr: 0x1000068AC, symSize: 0x34 }
  - { offsetInCU: 0x7A27, offset: 0x1B6A0, size: 0x8, addend: 0x0, symName: __ZNSt3__16vectorI13TelemetryDataNS_9allocatorIS1_EEE5beginB8ne180100Ev, symObjAddr: 0x2F4, symBinAddr: 0x1000068E0, symSize: 0x30 }
  - { offsetInCU: 0x7A4D, offset: 0x1B6C6, size: 0x8, addend: 0x0, symName: __ZNSt3__16vectorI13TelemetryDataNS_9allocatorIS1_EEE3endB8ne180100Ev, symObjAddr: 0x324, symBinAddr: 0x100006910, symSize: 0x30 }
  - { offsetInCU: 0x7A73, offset: 0x1B6EC, size: 0x8, addend: 0x0, symName: __ZNKSt3__111__wrap_iterIP13TelemetryDataEdeB8ne180100Ev, symObjAddr: 0x388, symBinAddr: 0x100006974, symSize: 0x18 }
  - { offsetInCU: 0x7A98, offset: 0x1B711, size: 0x8, addend: 0x0, symName: __ZNSt3__111__wrap_iterIP13TelemetryDataEppB8ne180100Ev, symObjAddr: 0x434, symBinAddr: 0x100006A20, symSize: 0x20 }
  - { offsetInCU: 0x7ABD, offset: 0x1B736, size: 0x8, addend: 0x0, symName: __ZNSt3__16vectorI13TelemetryDataNS_9allocatorIS1_EEED1B8ne180100Ev, symObjAddr: 0x454, symBinAddr: 0x100006A40, symSize: 0x2C }
  - { offsetInCU: 0x7AE6, offset: 0x1B75F, size: 0x8, addend: 0x0, symName: __ZN10DataParserD1Ev, symObjAddr: 0x480, symBinAddr: 0x100006A6C, symSize: 0x2C }
  - { offsetInCU: 0x7B11, offset: 0x1B78A, size: 0x8, addend: 0x0, symName: __ZN10DataParserC2Ev, symObjAddr: 0x4B8, symBinAddr: 0x100006A98, symSize: 0x2C }
  - { offsetInCU: 0x7B3C, offset: 0x1B7B5, size: 0x8, addend: 0x0, symName: __ZNSt3__16vectorI13TelemetryDataNS_9allocatorIS1_EEEC1B8ne180100Ev, symObjAddr: 0x4E4, symBinAddr: 0x100006AC4, symSize: 0x2C }
  - { offsetInCU: 0x7B65, offset: 0x1B7DE, size: 0x8, addend: 0x0, symName: __ZNSt3__16vectorI13TelemetryDataNS_9allocatorIS1_EEEC2B8ne180100Ev, symObjAddr: 0x510, symBinAddr: 0x100006AF0, symSize: 0x4C }
  - { offsetInCU: 0x7B98, offset: 0x1B811, size: 0x8, addend: 0x0, symName: __ZNSt3__117__compressed_pairIP13TelemetryDataNS_9allocatorIS1_EEEC1B8ne180100IDnNS_18__default_init_tagEEEOT_OT0_, symObjAddr: 0x55C, symBinAddr: 0x100006B3C, symSize: 0x3C }
  - { offsetInCU: 0x7BEF, offset: 0x1B868, size: 0x8, addend: 0x0, symName: __ZNSt3__117__compressed_pairIP13TelemetryDataNS_9allocatorIS1_EEEC2B8ne180100IDnNS_18__default_init_tagEEEOT_OT0_, symObjAddr: 0x598, symBinAddr: 0x100006B78, symSize: 0x40 }
  - { offsetInCU: 0x7C46, offset: 0x1B8BF, size: 0x8, addend: 0x0, symName: __ZNSt3__122__compressed_pair_elemINS_9allocatorI13TelemetryDataEELi1ELb1EEC2B8ne180100ENS_18__default_init_tagE, symObjAddr: 0x5F4, symBinAddr: 0x100006BB8, symSize: 0x2C }
  - { offsetInCU: 0x7C7A, offset: 0x1B8F3, size: 0x8, addend: 0x0, symName: __ZNSt3__19allocatorI13TelemetryDataEC2B8ne180100Ev, symObjAddr: 0x620, symBinAddr: 0x100006BE4, symSize: 0x2C }
  - { offsetInCU: 0x7CA4, offset: 0x1B91D, size: 0x8, addend: 0x0, symName: __ZNSt3__116__non_trivial_ifILb1ENS_9allocatorI13TelemetryDataEEEC2B8ne180100Ev, symObjAddr: 0x64C, symBinAddr: 0x100006C10, symSize: 0x14 }
  - { offsetInCU: 0x7CCC, offset: 0x1B945, size: 0x8, addend: 0x0, symName: __ZNKSt3__111__wrap_iterIP13TelemetryDataE4baseB8ne180100Ev, symObjAddr: 0x6A8, symBinAddr: 0x100006C6C, symSize: 0x18 }
  - { offsetInCU: 0x7CF1, offset: 0x1B96A, size: 0x8, addend: 0x0, symName: __ZN10DataParserD2Ev, symObjAddr: 0x6C0, symBinAddr: 0x100006C84, symSize: 0x2C }
  - { offsetInCU: 0x7D1C, offset: 0x1B995, size: 0x8, addend: 0x0, symName: __ZNSt3__16vectorI13TelemetryDataNS_9allocatorIS1_EEED2B8ne180100Ev, symObjAddr: 0x6EC, symBinAddr: 0x100006CB0, symSize: 0x44 }
  - { offsetInCU: 0x7D45, offset: 0x1B9BE, size: 0x8, addend: 0x0, symName: __ZNSt3__112basic_stringIcNS_11char_traitsIcEENS_9allocatorIcEEEC2B8ne180100ILi0EEEPKc, symObjAddr: 0xB90, symBinAddr: 0x100006CF4, symSize: 0x58 }
  - { offsetInCU: 0x7D83, offset: 0x1B9FC, size: 0x8, addend: 0x0, symName: __ZNSt3__117__compressed_pairINS_12basic_stringIcNS_11char_traitsIcEENS_9allocatorIcEEE5__repES5_EC1B8ne180100INS_18__default_init_tagESA_EEOT_OT0_, symObjAddr: 0xBE8, symBinAddr: 0x100006D4C, symSize: 0x3C }
  - { offsetInCU: 0x7DDB, offset: 0x1BA54, size: 0x8, addend: 0x0, symName: __ZNSt3__111char_traitsIcE6lengthB8ne180100EPKc, symObjAddr: 0xC24, symBinAddr: 0x100006D88, symSize: 0x34 }
  - { offsetInCU: 0x7DFD, offset: 0x1BA76, size: 0x8, addend: 0x0, symName: __ZNSt3__117__compressed_pairINS_12basic_stringIcNS_11char_traitsIcEENS_9allocatorIcEEE5__repES5_EC2B8ne180100INS_18__default_init_tagESA_EEOT_OT0_, symObjAddr: 0xC58, symBinAddr: 0x100006DBC, symSize: 0x3C }
  - { offsetInCU: 0x7E55, offset: 0x1BACE, size: 0x8, addend: 0x0, symName: __ZNSt3__122__compressed_pair_elemINS_12basic_stringIcNS_11char_traitsIcEENS_9allocatorIcEEE5__repELi0ELb0EEC2B8ne180100ENS_18__default_init_tagE, symObjAddr: 0xC94, symBinAddr: 0x100006DF8, symSize: 0x14 }
  - { offsetInCU: 0x7E89, offset: 0x1BB02, size: 0x8, addend: 0x0, symName: __ZNSt3__16vectorI13TelemetryDataNS_9allocatorIS1_EEE11__make_iterB8ne180100EPS1_, symObjAddr: 0xD38, symBinAddr: 0x100006E30, symSize: 0x30 }
  - { offsetInCU: 0x7EBC, offset: 0x1BB35, size: 0x8, addend: 0x0, symName: __ZNSt3__111__wrap_iterIP13TelemetryDataEC1B8ne180100ES2_, symObjAddr: 0xD68, symBinAddr: 0x100006E60, symSize: 0x34 }
  - { offsetInCU: 0x7EF4, offset: 0x1BB6D, size: 0x8, addend: 0x0, symName: __ZNSt3__111__wrap_iterIP13TelemetryDataEC2B8ne180100ES2_, symObjAddr: 0xD9C, symBinAddr: 0x100006E94, symSize: 0x20 }
  - { offsetInCU: 0x7F48, offset: 0x1BBC1, size: 0x8, addend: 0x0, symName: __ZNKSt3__113basic_ostreamIcNS_11char_traitsIcEEE6sentrycvbB8ne180100Ev, symObjAddr: 0xFA8, symBinAddr: 0x1000070A0, symSize: 0x1C }
  - { offsetInCU: 0x7F6D, offset: 0x1BBE6, size: 0x8, addend: 0x0, symName: __ZNSt3__119ostreambuf_iteratorIcNS_11char_traitsIcEEEC1B8ne180100ERNS_13basic_ostreamIcS2_EE, symObjAddr: 0x1204, symBinAddr: 0x1000072FC, symSize: 0x34 }
  - { offsetInCU: 0x7FA5, offset: 0x1BC1E, size: 0x8, addend: 0x0, symName: __ZNKSt3__18ios_base5flagsB8ne180100Ev, symObjAddr: 0x1238, symBinAddr: 0x100007330, symSize: 0x18 }
  - { offsetInCU: 0x7FCB, offset: 0x1BC44, size: 0x8, addend: 0x0, symName: __ZNKSt3__19basic_iosIcNS_11char_traitsIcEEE4fillB8ne180100Ev, symObjAddr: 0x1250, symBinAddr: 0x100007348, symSize: 0x64 }
  - { offsetInCU: 0x7FF1, offset: 0x1BC6A, size: 0x8, addend: 0x0, symName: __ZNKSt3__119ostreambuf_iteratorIcNS_11char_traitsIcEEE6failedB8ne180100Ev, symObjAddr: 0x12B4, symBinAddr: 0x1000073AC, symSize: 0x24 }
  - { offsetInCU: 0x8017, offset: 0x1BC90, size: 0x8, addend: 0x0, symName: __ZNKSt3__18ios_base5widthB8ne180100Ev, symObjAddr: 0x1304, symBinAddr: 0x1000073D0, symSize: 0x18 }
  - { offsetInCU: 0x803E, offset: 0x1BCB7, size: 0x8, addend: 0x0, symName: __ZNSt3__115basic_streambufIcNS_11char_traitsIcEEE5sputnB8ne180100EPKcl, symObjAddr: 0x131C, symBinAddr: 0x1000073E8, symSize: 0x3C }
  - { offsetInCU: 0x807E, offset: 0x1BCF7, size: 0x8, addend: 0x0, symName: __ZNSt3__112basic_stringIcNS_11char_traitsIcEENS_9allocatorIcEEEC1B8ne180100Emc, symObjAddr: 0x1358, symBinAddr: 0x100007424, symSize: 0x3C }
  - { offsetInCU: 0x80C6, offset: 0x1BD3F, size: 0x8, addend: 0x0, symName: __ZNSt3__18ios_base5widthB8ne180100El, symObjAddr: 0x13BC, symBinAddr: 0x100007460, symSize: 0x2C }
  - { offsetInCU: 0x810A, offset: 0x1BD83, size: 0x8, addend: 0x0, symName: __ZNSt3__112basic_stringIcNS_11char_traitsIcEENS_9allocatorIcEEEC2B8ne180100Emc, symObjAddr: 0x13E8, symBinAddr: 0x10000748C, symSize: 0x4C }
  - { offsetInCU: 0x8151, offset: 0x1BDCA, size: 0x8, addend: 0x0, symName: __ZNSt3__119ostreambuf_iteratorIcNS_11char_traitsIcEEEC2B8ne180100ERNS_13basic_ostreamIcS2_EE, symObjAddr: 0x1570, symBinAddr: 0x1000074D8, symSize: 0x54 }
...
